   1               		.file	"Endpoint.c"
   2               	__SP_H__ = 0x3e
   3               	__SP_L__ = 0x3d
   4               	__SREG__ = 0x3f
   5               	__tmp_reg__ = 0
   6               	__zero_reg__ = 1
   7               		.text
   8               	.Ltext0:
   9               		.cfi_sections	.debug_frame
  10               		.section	.text.Endpoint_BytesToEPSizeMaskDynamic,"ax",@progbits
  11               	.global	Endpoint_BytesToEPSizeMaskDynamic
  13               	Endpoint_BytesToEPSizeMaskDynamic:
  14               	.LFB64:
  15               		.file 1 "../LUFA_100807//LUFA/Drivers/USB/LowLevel/Endpoint.c"
   1:../LUFA_100807//LUFA/Drivers/USB/LowLevel/Endpoint.c **** /*
   2:../LUFA_100807//LUFA/Drivers/USB/LowLevel/Endpoint.c ****              LUFA Library
   3:../LUFA_100807//LUFA/Drivers/USB/LowLevel/Endpoint.c ****      Copyright (C) Dean Camera, 2010.
   4:../LUFA_100807//LUFA/Drivers/USB/LowLevel/Endpoint.c ****               
   5:../LUFA_100807//LUFA/Drivers/USB/LowLevel/Endpoint.c ****   dean [at] fourwalledcubicle [dot] com
   6:../LUFA_100807//LUFA/Drivers/USB/LowLevel/Endpoint.c ****       www.fourwalledcubicle.com
   7:../LUFA_100807//LUFA/Drivers/USB/LowLevel/Endpoint.c **** */
   8:../LUFA_100807//LUFA/Drivers/USB/LowLevel/Endpoint.c **** 
   9:../LUFA_100807//LUFA/Drivers/USB/LowLevel/Endpoint.c **** /*
  10:../LUFA_100807//LUFA/Drivers/USB/LowLevel/Endpoint.c ****   Copyright 2010  Dean Camera (dean [at] fourwalledcubicle [dot] com)
  11:../LUFA_100807//LUFA/Drivers/USB/LowLevel/Endpoint.c **** 
  12:../LUFA_100807//LUFA/Drivers/USB/LowLevel/Endpoint.c ****   Permission to use, copy, modify, distribute, and sell this 
  13:../LUFA_100807//LUFA/Drivers/USB/LowLevel/Endpoint.c ****   software and its documentation for any purpose is hereby granted
  14:../LUFA_100807//LUFA/Drivers/USB/LowLevel/Endpoint.c ****   without fee, provided that the above copyright notice appear in 
  15:../LUFA_100807//LUFA/Drivers/USB/LowLevel/Endpoint.c ****   all copies and that both that the copyright notice and this
  16:../LUFA_100807//LUFA/Drivers/USB/LowLevel/Endpoint.c ****   permission notice and warranty disclaimer appear in supporting 
  17:../LUFA_100807//LUFA/Drivers/USB/LowLevel/Endpoint.c ****   documentation, and that the name of the author not be used in 
  18:../LUFA_100807//LUFA/Drivers/USB/LowLevel/Endpoint.c ****   advertising or publicity pertaining to distribution of the 
  19:../LUFA_100807//LUFA/Drivers/USB/LowLevel/Endpoint.c ****   software without specific, written prior permission.
  20:../LUFA_100807//LUFA/Drivers/USB/LowLevel/Endpoint.c **** 
  21:../LUFA_100807//LUFA/Drivers/USB/LowLevel/Endpoint.c ****   The author disclaim all warranties with regard to this
  22:../LUFA_100807//LUFA/Drivers/USB/LowLevel/Endpoint.c ****   software, including all implied warranties of merchantability
  23:../LUFA_100807//LUFA/Drivers/USB/LowLevel/Endpoint.c ****   and fitness.  In no event shall the author be liable for any
  24:../LUFA_100807//LUFA/Drivers/USB/LowLevel/Endpoint.c ****   special, indirect or consequential damages or any damages
  25:../LUFA_100807//LUFA/Drivers/USB/LowLevel/Endpoint.c ****   whatsoever resulting from loss of use, data or profits, whether
  26:../LUFA_100807//LUFA/Drivers/USB/LowLevel/Endpoint.c ****   in an action of contract, negligence or other tortious action,
  27:../LUFA_100807//LUFA/Drivers/USB/LowLevel/Endpoint.c ****   arising out of or in connection with the use or performance of
  28:../LUFA_100807//LUFA/Drivers/USB/LowLevel/Endpoint.c ****   this software.
  29:../LUFA_100807//LUFA/Drivers/USB/LowLevel/Endpoint.c **** */
  30:../LUFA_100807//LUFA/Drivers/USB/LowLevel/Endpoint.c **** 
  31:../LUFA_100807//LUFA/Drivers/USB/LowLevel/Endpoint.c **** #define  __INCLUDE_FROM_USB_DRIVER
  32:../LUFA_100807//LUFA/Drivers/USB/LowLevel/Endpoint.c **** #include "../HighLevel/USBMode.h"
  33:../LUFA_100807//LUFA/Drivers/USB/LowLevel/Endpoint.c **** 
  34:../LUFA_100807//LUFA/Drivers/USB/LowLevel/Endpoint.c **** #if defined(USB_CAN_BE_DEVICE)
  35:../LUFA_100807//LUFA/Drivers/USB/LowLevel/Endpoint.c **** 
  36:../LUFA_100807//LUFA/Drivers/USB/LowLevel/Endpoint.c **** #define  __INCLUDE_FROM_ENDPOINT_C
  37:../LUFA_100807//LUFA/Drivers/USB/LowLevel/Endpoint.c **** #include "Endpoint.h"
  38:../LUFA_100807//LUFA/Drivers/USB/LowLevel/Endpoint.c **** 
  39:../LUFA_100807//LUFA/Drivers/USB/LowLevel/Endpoint.c **** #if !defined(FIXED_CONTROL_ENDPOINT_SIZE)
  40:../LUFA_100807//LUFA/Drivers/USB/LowLevel/Endpoint.c **** uint8_t USB_ControlEndpointSize = ENDPOINT_CONTROLEP_DEFAULT_SIZE;
  41:../LUFA_100807//LUFA/Drivers/USB/LowLevel/Endpoint.c **** #endif
  42:../LUFA_100807//LUFA/Drivers/USB/LowLevel/Endpoint.c **** 
  43:../LUFA_100807//LUFA/Drivers/USB/LowLevel/Endpoint.c **** uint8_t Endpoint_BytesToEPSizeMaskDynamic(const uint16_t Size)
  44:../LUFA_100807//LUFA/Drivers/USB/LowLevel/Endpoint.c **** {
  16               		.loc 1 44 0
  17               		.cfi_startproc
  18               	.LVL0:
  19               	/* prologue: function */
  20               	/* frame size = 0 */
  21               	/* stack size = 0 */
  22               	.L__stack_usage = 0
  23 0000 AC01      		movw r20,r24
  24               	.LVL1:
  25               	.LBB183:
  26               	.LBB184:
  27               		.file 2 "../LUFA_100807//LUFA/Drivers/USB/LowLevel/Endpoint.h"
   1:../LUFA_100807//LUFA/Drivers/USB/LowLevel/Endpoint.h **** /*
   2:../LUFA_100807//LUFA/Drivers/USB/LowLevel/Endpoint.h ****              LUFA Library
   3:../LUFA_100807//LUFA/Drivers/USB/LowLevel/Endpoint.h ****      Copyright (C) Dean Camera, 2010.
   4:../LUFA_100807//LUFA/Drivers/USB/LowLevel/Endpoint.h ****               
   5:../LUFA_100807//LUFA/Drivers/USB/LowLevel/Endpoint.h ****   dean [at] fourwalledcubicle [dot] com
   6:../LUFA_100807//LUFA/Drivers/USB/LowLevel/Endpoint.h ****       www.fourwalledcubicle.com
   7:../LUFA_100807//LUFA/Drivers/USB/LowLevel/Endpoint.h **** */
   8:../LUFA_100807//LUFA/Drivers/USB/LowLevel/Endpoint.h **** 
   9:../LUFA_100807//LUFA/Drivers/USB/LowLevel/Endpoint.h **** /*
  10:../LUFA_100807//LUFA/Drivers/USB/LowLevel/Endpoint.h ****   Copyright 2010  Dean Camera (dean [at] fourwalledcubicle [dot] com)
  11:../LUFA_100807//LUFA/Drivers/USB/LowLevel/Endpoint.h **** 
  12:../LUFA_100807//LUFA/Drivers/USB/LowLevel/Endpoint.h ****   Permission to use, copy, modify, distribute, and sell this 
  13:../LUFA_100807//LUFA/Drivers/USB/LowLevel/Endpoint.h ****   software and its documentation for any purpose is hereby granted
  14:../LUFA_100807//LUFA/Drivers/USB/LowLevel/Endpoint.h ****   without fee, provided that the above copyright notice appear in 
  15:../LUFA_100807//LUFA/Drivers/USB/LowLevel/Endpoint.h ****   all copies and that both that the copyright notice and this
  16:../LUFA_100807//LUFA/Drivers/USB/LowLevel/Endpoint.h ****   permission notice and warranty disclaimer appear in supporting 
  17:../LUFA_100807//LUFA/Drivers/USB/LowLevel/Endpoint.h ****   documentation, and that the name of the author not be used in 
  18:../LUFA_100807//LUFA/Drivers/USB/LowLevel/Endpoint.h ****   advertising or publicity pertaining to distribution of the 
  19:../LUFA_100807//LUFA/Drivers/USB/LowLevel/Endpoint.h ****   software without specific, written prior permission.
  20:../LUFA_100807//LUFA/Drivers/USB/LowLevel/Endpoint.h **** 
  21:../LUFA_100807//LUFA/Drivers/USB/LowLevel/Endpoint.h ****   The author disclaim all warranties with regard to this
  22:../LUFA_100807//LUFA/Drivers/USB/LowLevel/Endpoint.h ****   software, including all implied warranties of merchantability
  23:../LUFA_100807//LUFA/Drivers/USB/LowLevel/Endpoint.h ****   and fitness.  In no event shall the author be liable for any
  24:../LUFA_100807//LUFA/Drivers/USB/LowLevel/Endpoint.h ****   special, indirect or consequential damages or any damages
  25:../LUFA_100807//LUFA/Drivers/USB/LowLevel/Endpoint.h ****   whatsoever resulting from loss of use, data or profits, whether
  26:../LUFA_100807//LUFA/Drivers/USB/LowLevel/Endpoint.h ****   in an action of contract, negligence or other tortious action,
  27:../LUFA_100807//LUFA/Drivers/USB/LowLevel/Endpoint.h ****   arising out of or in connection with the use or performance of
  28:../LUFA_100807//LUFA/Drivers/USB/LowLevel/Endpoint.h ****   this software.
  29:../LUFA_100807//LUFA/Drivers/USB/LowLevel/Endpoint.h **** */
  30:../LUFA_100807//LUFA/Drivers/USB/LowLevel/Endpoint.h **** 
  31:../LUFA_100807//LUFA/Drivers/USB/LowLevel/Endpoint.h **** /** \file
  32:../LUFA_100807//LUFA/Drivers/USB/LowLevel/Endpoint.h ****  *  \brief USB device endpoint management definitions.
  33:../LUFA_100807//LUFA/Drivers/USB/LowLevel/Endpoint.h ****  *
  34:../LUFA_100807//LUFA/Drivers/USB/LowLevel/Endpoint.h ****  *  This file contains structures, function prototypes and macros related to the management of the 
  35:../LUFA_100807//LUFA/Drivers/USB/LowLevel/Endpoint.h ****  *  data endpoints when the library is initialized in USB device mode.
  36:../LUFA_100807//LUFA/Drivers/USB/LowLevel/Endpoint.h ****  *
  37:../LUFA_100807//LUFA/Drivers/USB/LowLevel/Endpoint.h ****  *  \note This file should not be included directly. It is automatically included as needed by the 
  38:../LUFA_100807//LUFA/Drivers/USB/LowLevel/Endpoint.h ****  *        dispatch header located in LUFA/Drivers/USB/USB.h.
  39:../LUFA_100807//LUFA/Drivers/USB/LowLevel/Endpoint.h ****  */
  40:../LUFA_100807//LUFA/Drivers/USB/LowLevel/Endpoint.h **** 
  41:../LUFA_100807//LUFA/Drivers/USB/LowLevel/Endpoint.h **** /** \ingroup Group_USB
  42:../LUFA_100807//LUFA/Drivers/USB/LowLevel/Endpoint.h ****  *  @defgroup Group_EndpointManagement Endpoint Management
  43:../LUFA_100807//LUFA/Drivers/USB/LowLevel/Endpoint.h ****  *
  44:../LUFA_100807//LUFA/Drivers/USB/LowLevel/Endpoint.h ****  *  Functions, macros and enums related to endpoint management when in USB Device mode. This
  45:../LUFA_100807//LUFA/Drivers/USB/LowLevel/Endpoint.h ****  *  module contains the endpoint management macros, as well as endpoint interrupt and data
  46:../LUFA_100807//LUFA/Drivers/USB/LowLevel/Endpoint.h ****  *  send/receive functions for various data types.
  47:../LUFA_100807//LUFA/Drivers/USB/LowLevel/Endpoint.h ****  *
  48:../LUFA_100807//LUFA/Drivers/USB/LowLevel/Endpoint.h ****  *  @{
  49:../LUFA_100807//LUFA/Drivers/USB/LowLevel/Endpoint.h ****  */
  50:../LUFA_100807//LUFA/Drivers/USB/LowLevel/Endpoint.h **** 
  51:../LUFA_100807//LUFA/Drivers/USB/LowLevel/Endpoint.h **** /** @defgroup Group_EndpointRW Endpoint Data Reading and Writing
  52:../LUFA_100807//LUFA/Drivers/USB/LowLevel/Endpoint.h ****  *
  53:../LUFA_100807//LUFA/Drivers/USB/LowLevel/Endpoint.h ****  *  Functions, macros, variables, enums and types related to data reading and writing from and to e
  54:../LUFA_100807//LUFA/Drivers/USB/LowLevel/Endpoint.h ****  */
  55:../LUFA_100807//LUFA/Drivers/USB/LowLevel/Endpoint.h ****  
  56:../LUFA_100807//LUFA/Drivers/USB/LowLevel/Endpoint.h **** /** \ingroup Group_EndpointRW  
  57:../LUFA_100807//LUFA/Drivers/USB/LowLevel/Endpoint.h ****  *  @defgroup Group_EndpointPrimitiveRW Read/Write of Primitive Data Types
  58:../LUFA_100807//LUFA/Drivers/USB/LowLevel/Endpoint.h ****  *
  59:../LUFA_100807//LUFA/Drivers/USB/LowLevel/Endpoint.h ****  *  Functions, macros, variables, enums and types related to data reading and writing of primitive 
  60:../LUFA_100807//LUFA/Drivers/USB/LowLevel/Endpoint.h ****  *  from and to endpoints.
  61:../LUFA_100807//LUFA/Drivers/USB/LowLevel/Endpoint.h ****  */ 
  62:../LUFA_100807//LUFA/Drivers/USB/LowLevel/Endpoint.h **** 
  63:../LUFA_100807//LUFA/Drivers/USB/LowLevel/Endpoint.h **** /** \ingroup Group_EndpointRW  
  64:../LUFA_100807//LUFA/Drivers/USB/LowLevel/Endpoint.h ****  *  @defgroup Group_EndpointStreamRW Read/Write of Multi-Byte Streams
  65:../LUFA_100807//LUFA/Drivers/USB/LowLevel/Endpoint.h ****  *
  66:../LUFA_100807//LUFA/Drivers/USB/LowLevel/Endpoint.h ****  *  Functions, macros, variables, enums and types related to data reading and writing of data strea
  67:../LUFA_100807//LUFA/Drivers/USB/LowLevel/Endpoint.h ****  *  and to endpoints.
  68:../LUFA_100807//LUFA/Drivers/USB/LowLevel/Endpoint.h ****  */ 
  69:../LUFA_100807//LUFA/Drivers/USB/LowLevel/Endpoint.h **** 
  70:../LUFA_100807//LUFA/Drivers/USB/LowLevel/Endpoint.h **** /** @defgroup Group_EndpointPacketManagement Endpoint Packet Management
  71:../LUFA_100807//LUFA/Drivers/USB/LowLevel/Endpoint.h ****  *
  72:../LUFA_100807//LUFA/Drivers/USB/LowLevel/Endpoint.h ****  *  Functions, macros, variables, enums and types related to packet management of endpoints.
  73:../LUFA_100807//LUFA/Drivers/USB/LowLevel/Endpoint.h ****  */
  74:../LUFA_100807//LUFA/Drivers/USB/LowLevel/Endpoint.h **** 
  75:../LUFA_100807//LUFA/Drivers/USB/LowLevel/Endpoint.h **** #ifndef __ENDPOINT_H__
  76:../LUFA_100807//LUFA/Drivers/USB/LowLevel/Endpoint.h **** #define __ENDPOINT_H__
  77:../LUFA_100807//LUFA/Drivers/USB/LowLevel/Endpoint.h **** 
  78:../LUFA_100807//LUFA/Drivers/USB/LowLevel/Endpoint.h **** 	/* Includes: */
  79:../LUFA_100807//LUFA/Drivers/USB/LowLevel/Endpoint.h **** 		#include <avr/io.h>
  80:../LUFA_100807//LUFA/Drivers/USB/LowLevel/Endpoint.h **** 		#include <avr/pgmspace.h>
  81:../LUFA_100807//LUFA/Drivers/USB/LowLevel/Endpoint.h **** 		#include <avr/eeprom.h>
  82:../LUFA_100807//LUFA/Drivers/USB/LowLevel/Endpoint.h **** 		#include <stdbool.h>
  83:../LUFA_100807//LUFA/Drivers/USB/LowLevel/Endpoint.h **** 
  84:../LUFA_100807//LUFA/Drivers/USB/LowLevel/Endpoint.h **** 		#include "../../../Common/Common.h"
  85:../LUFA_100807//LUFA/Drivers/USB/LowLevel/Endpoint.h **** 		#include "../HighLevel/USBTask.h"
  86:../LUFA_100807//LUFA/Drivers/USB/LowLevel/Endpoint.h **** 		#include "USBInterrupt.h"
  87:../LUFA_100807//LUFA/Drivers/USB/LowLevel/Endpoint.h **** 
  88:../LUFA_100807//LUFA/Drivers/USB/LowLevel/Endpoint.h **** 		#if !defined(NO_STREAM_CALLBACKS) || defined(__DOXYGEN__)
  89:../LUFA_100807//LUFA/Drivers/USB/LowLevel/Endpoint.h **** 			#include "../HighLevel/StreamCallbacks.h"
  90:../LUFA_100807//LUFA/Drivers/USB/LowLevel/Endpoint.h **** 		#endif
  91:../LUFA_100807//LUFA/Drivers/USB/LowLevel/Endpoint.h **** 		
  92:../LUFA_100807//LUFA/Drivers/USB/LowLevel/Endpoint.h **** 	/* Enable C linkage for C++ Compilers: */
  93:../LUFA_100807//LUFA/Drivers/USB/LowLevel/Endpoint.h **** 		#if defined(__cplusplus)
  94:../LUFA_100807//LUFA/Drivers/USB/LowLevel/Endpoint.h **** 			extern "C" {
  95:../LUFA_100807//LUFA/Drivers/USB/LowLevel/Endpoint.h **** 		#endif
  96:../LUFA_100807//LUFA/Drivers/USB/LowLevel/Endpoint.h **** 
  97:../LUFA_100807//LUFA/Drivers/USB/LowLevel/Endpoint.h **** 	/* Preprocessor Checks: */
  98:../LUFA_100807//LUFA/Drivers/USB/LowLevel/Endpoint.h **** 		#if !defined(__INCLUDE_FROM_USB_DRIVER)
  99:../LUFA_100807//LUFA/Drivers/USB/LowLevel/Endpoint.h **** 			#error Do not include this file directly. Include LUFA/Drivers/USB/USB.h instead.
 100:../LUFA_100807//LUFA/Drivers/USB/LowLevel/Endpoint.h **** 		#endif
 101:../LUFA_100807//LUFA/Drivers/USB/LowLevel/Endpoint.h **** 		
 102:../LUFA_100807//LUFA/Drivers/USB/LowLevel/Endpoint.h **** 	/* Public Interface - May be used in end-application: */
 103:../LUFA_100807//LUFA/Drivers/USB/LowLevel/Endpoint.h **** 		/* Macros: */
 104:../LUFA_100807//LUFA/Drivers/USB/LowLevel/Endpoint.h **** 			/** Endpoint data direction mask for \ref Endpoint_ConfigureEndpoint(). This indicates that the 
 105:../LUFA_100807//LUFA/Drivers/USB/LowLevel/Endpoint.h **** 			 *  should be initialized in the OUT direction - i.e. data flows from host to device.
 106:../LUFA_100807//LUFA/Drivers/USB/LowLevel/Endpoint.h **** 			 */
 107:../LUFA_100807//LUFA/Drivers/USB/LowLevel/Endpoint.h **** 			#define ENDPOINT_DIR_OUT                      (0 << EPDIR)
 108:../LUFA_100807//LUFA/Drivers/USB/LowLevel/Endpoint.h **** 
 109:../LUFA_100807//LUFA/Drivers/USB/LowLevel/Endpoint.h **** 			/** Endpoint data direction mask for \ref Endpoint_ConfigureEndpoint(). This indicates that the 
 110:../LUFA_100807//LUFA/Drivers/USB/LowLevel/Endpoint.h **** 			 *  should be initialized in the IN direction - i.e. data flows from device to host.
 111:../LUFA_100807//LUFA/Drivers/USB/LowLevel/Endpoint.h **** 			 */
 112:../LUFA_100807//LUFA/Drivers/USB/LowLevel/Endpoint.h **** 			#define ENDPOINT_DIR_IN                       (1 << EPDIR)
 113:../LUFA_100807//LUFA/Drivers/USB/LowLevel/Endpoint.h **** 
 114:../LUFA_100807//LUFA/Drivers/USB/LowLevel/Endpoint.h **** 			/** Mask for the bank mode selection for the \ref Endpoint_ConfigureEndpoint() macro. This indic
 115:../LUFA_100807//LUFA/Drivers/USB/LowLevel/Endpoint.h **** 			 *  that the endpoint should have one single bank, which requires less USB FIFO memory but resul
 116:../LUFA_100807//LUFA/Drivers/USB/LowLevel/Endpoint.h **** 			 *  in slower transfers as only one USB device (the AVR or the host) can access the endpoint's
 117:../LUFA_100807//LUFA/Drivers/USB/LowLevel/Endpoint.h **** 			 *  bank at the one time.
 118:../LUFA_100807//LUFA/Drivers/USB/LowLevel/Endpoint.h **** 			 */
 119:../LUFA_100807//LUFA/Drivers/USB/LowLevel/Endpoint.h **** 			#define ENDPOINT_BANK_SINGLE                  (0 << EPBK0)
 120:../LUFA_100807//LUFA/Drivers/USB/LowLevel/Endpoint.h **** 
 121:../LUFA_100807//LUFA/Drivers/USB/LowLevel/Endpoint.h **** 			/** Mask for the bank mode selection for the \ref Endpoint_ConfigureEndpoint() macro. This indic
 122:../LUFA_100807//LUFA/Drivers/USB/LowLevel/Endpoint.h **** 			 *  that the endpoint should have two banks, which requires more USB FIFO memory but results
 123:../LUFA_100807//LUFA/Drivers/USB/LowLevel/Endpoint.h **** 			 *  in faster transfers as one USB device (the AVR or the host) can access one bank while the ot
 124:../LUFA_100807//LUFA/Drivers/USB/LowLevel/Endpoint.h **** 			 *  accesses the second bank.
 125:../LUFA_100807//LUFA/Drivers/USB/LowLevel/Endpoint.h **** 			 */
 126:../LUFA_100807//LUFA/Drivers/USB/LowLevel/Endpoint.h **** 			#define ENDPOINT_BANK_DOUBLE                  (1 << EPBK0)
 127:../LUFA_100807//LUFA/Drivers/USB/LowLevel/Endpoint.h **** 			
 128:../LUFA_100807//LUFA/Drivers/USB/LowLevel/Endpoint.h **** 			/** Endpoint address for the default control endpoint, which always resides in address 0. This i
 129:../LUFA_100807//LUFA/Drivers/USB/LowLevel/Endpoint.h **** 			 *  defined for convenience to give more readable code when used with the endpoint macros.
 130:../LUFA_100807//LUFA/Drivers/USB/LowLevel/Endpoint.h **** 			 */
 131:../LUFA_100807//LUFA/Drivers/USB/LowLevel/Endpoint.h **** 			#define ENDPOINT_CONTROLEP                    0
 132:../LUFA_100807//LUFA/Drivers/USB/LowLevel/Endpoint.h **** 
 133:../LUFA_100807//LUFA/Drivers/USB/LowLevel/Endpoint.h **** 			#if (!defined(FIXED_CONTROL_ENDPOINT_SIZE) || defined(__DOXYGEN__))
 134:../LUFA_100807//LUFA/Drivers/USB/LowLevel/Endpoint.h **** 				/** Default size of the default control endpoint's bank, until altered by the control endpoint 
 135:../LUFA_100807//LUFA/Drivers/USB/LowLevel/Endpoint.h **** 				 *  value in the device descriptor. Not available if the FIXED_CONTROL_ENDPOINT_SIZE token is d
 136:../LUFA_100807//LUFA/Drivers/USB/LowLevel/Endpoint.h **** 				 */
 137:../LUFA_100807//LUFA/Drivers/USB/LowLevel/Endpoint.h **** 				#define ENDPOINT_CONTROLEP_DEFAULT_SIZE   8
 138:../LUFA_100807//LUFA/Drivers/USB/LowLevel/Endpoint.h **** 			#endif
 139:../LUFA_100807//LUFA/Drivers/USB/LowLevel/Endpoint.h **** 			
 140:../LUFA_100807//LUFA/Drivers/USB/LowLevel/Endpoint.h **** 			/** Endpoint number mask, for masking against endpoint addresses to retrieve the endpoint's
 141:../LUFA_100807//LUFA/Drivers/USB/LowLevel/Endpoint.h **** 			 *  numerical address in the device.
 142:../LUFA_100807//LUFA/Drivers/USB/LowLevel/Endpoint.h **** 			 */
 143:../LUFA_100807//LUFA/Drivers/USB/LowLevel/Endpoint.h **** 			#define ENDPOINT_EPNUM_MASK                   0x07
 144:../LUFA_100807//LUFA/Drivers/USB/LowLevel/Endpoint.h **** 
 145:../LUFA_100807//LUFA/Drivers/USB/LowLevel/Endpoint.h **** 			/** Endpoint direction mask, for masking against endpoint addresses to retrieve the endpoint's
 146:../LUFA_100807//LUFA/Drivers/USB/LowLevel/Endpoint.h **** 			 *  direction for comparing with the ENDPOINT_DESCRIPTOR_DIR_* masks.
 147:../LUFA_100807//LUFA/Drivers/USB/LowLevel/Endpoint.h **** 			 */
 148:../LUFA_100807//LUFA/Drivers/USB/LowLevel/Endpoint.h **** 			#define ENDPOINT_EPDIR_MASK                   0x80
 149:../LUFA_100807//LUFA/Drivers/USB/LowLevel/Endpoint.h **** 
 150:../LUFA_100807//LUFA/Drivers/USB/LowLevel/Endpoint.h **** 			/** Endpoint bank size mask, for masking against endpoint addresses to retrieve the endpoint's
 151:../LUFA_100807//LUFA/Drivers/USB/LowLevel/Endpoint.h **** 			 *  bank size in the device.
 152:../LUFA_100807//LUFA/Drivers/USB/LowLevel/Endpoint.h **** 			 */
 153:../LUFA_100807//LUFA/Drivers/USB/LowLevel/Endpoint.h **** 			#define ENDPOINT_EPSIZE_MASK                  0x7F
 154:../LUFA_100807//LUFA/Drivers/USB/LowLevel/Endpoint.h **** 			
 155:../LUFA_100807//LUFA/Drivers/USB/LowLevel/Endpoint.h **** 			/** Maximum size in bytes of a given endpoint.
 156:../LUFA_100807//LUFA/Drivers/USB/LowLevel/Endpoint.h **** 			 *
 157:../LUFA_100807//LUFA/Drivers/USB/LowLevel/Endpoint.h **** 			 *  \param[in] n  Endpoint number, a value between 0 and (ENDPOINT_TOTAL_ENDPOINTS - 1)
 158:../LUFA_100807//LUFA/Drivers/USB/LowLevel/Endpoint.h **** 			 */				
 159:../LUFA_100807//LUFA/Drivers/USB/LowLevel/Endpoint.h **** 			#define ENDPOINT_MAX_SIZE(n)                  _ENDPOINT_GET_MAXSIZE(n)
 160:../LUFA_100807//LUFA/Drivers/USB/LowLevel/Endpoint.h **** 
 161:../LUFA_100807//LUFA/Drivers/USB/LowLevel/Endpoint.h **** 			/** Indicates if the given endpoint supports double banking.
 162:../LUFA_100807//LUFA/Drivers/USB/LowLevel/Endpoint.h **** 			 *
 163:../LUFA_100807//LUFA/Drivers/USB/LowLevel/Endpoint.h **** 			 *  \param[in] n  Endpoint number, a value between 0 and (ENDPOINT_TOTAL_ENDPOINTS - 1)
 164:../LUFA_100807//LUFA/Drivers/USB/LowLevel/Endpoint.h **** 			 */				
 165:../LUFA_100807//LUFA/Drivers/USB/LowLevel/Endpoint.h **** 			#define ENDPOINT_DOUBLEBANK_SUPPORTED(n)      _ENDPOINT_GET_DOUBLEBANK(n)
 166:../LUFA_100807//LUFA/Drivers/USB/LowLevel/Endpoint.h **** 
 167:../LUFA_100807//LUFA/Drivers/USB/LowLevel/Endpoint.h **** 			#if !defined(CONTROL_ONLY_DEVICE)
 168:../LUFA_100807//LUFA/Drivers/USB/LowLevel/Endpoint.h **** 				#if defined(USB_SERIES_4_AVR) || defined(USB_SERIES_6_AVR) || defined(USB_SERIES_7_AVR) || defi
 169:../LUFA_100807//LUFA/Drivers/USB/LowLevel/Endpoint.h **** 					/** Total number of endpoints (including the default control endpoint at address 0) which may
 170:../LUFA_100807//LUFA/Drivers/USB/LowLevel/Endpoint.h **** 					 *  be used in the device. Different USB AVR models support different amounts of endpoints,
 171:../LUFA_100807//LUFA/Drivers/USB/LowLevel/Endpoint.h **** 					 *  this value reflects the maximum number of endpoints for the currently selected AVR model.
 172:../LUFA_100807//LUFA/Drivers/USB/LowLevel/Endpoint.h **** 					 */
 173:../LUFA_100807//LUFA/Drivers/USB/LowLevel/Endpoint.h **** 					#define ENDPOINT_TOTAL_ENDPOINTS      7
 174:../LUFA_100807//LUFA/Drivers/USB/LowLevel/Endpoint.h **** 				#else
 175:../LUFA_100807//LUFA/Drivers/USB/LowLevel/Endpoint.h **** 					#define ENDPOINT_TOTAL_ENDPOINTS      5
 176:../LUFA_100807//LUFA/Drivers/USB/LowLevel/Endpoint.h **** 				#endif
 177:../LUFA_100807//LUFA/Drivers/USB/LowLevel/Endpoint.h **** 			#else
 178:../LUFA_100807//LUFA/Drivers/USB/LowLevel/Endpoint.h **** 				#define ENDPOINT_TOTAL_ENDPOINTS          1
 179:../LUFA_100807//LUFA/Drivers/USB/LowLevel/Endpoint.h **** 			#endif
 180:../LUFA_100807//LUFA/Drivers/USB/LowLevel/Endpoint.h **** 
 181:../LUFA_100807//LUFA/Drivers/USB/LowLevel/Endpoint.h **** 		/* Enums: */
 182:../LUFA_100807//LUFA/Drivers/USB/LowLevel/Endpoint.h **** 			/** Enum for the possible error return codes of the \ref Endpoint_WaitUntilReady() function.
 183:../LUFA_100807//LUFA/Drivers/USB/LowLevel/Endpoint.h **** 			 *
 184:../LUFA_100807//LUFA/Drivers/USB/LowLevel/Endpoint.h **** 			 *  \ingroup Group_EndpointRW
 185:../LUFA_100807//LUFA/Drivers/USB/LowLevel/Endpoint.h **** 			 */
 186:../LUFA_100807//LUFA/Drivers/USB/LowLevel/Endpoint.h **** 			enum Endpoint_WaitUntilReady_ErrorCodes_t
 187:../LUFA_100807//LUFA/Drivers/USB/LowLevel/Endpoint.h **** 			{
 188:../LUFA_100807//LUFA/Drivers/USB/LowLevel/Endpoint.h **** 				ENDPOINT_READYWAIT_NoError                 = 0, /**< Endpoint is ready for next packet, no erro
 189:../LUFA_100807//LUFA/Drivers/USB/LowLevel/Endpoint.h **** 				ENDPOINT_READYWAIT_EndpointStalled         = 1, /**< The endpoint was stalled during the stream
 190:../LUFA_100807//LUFA/Drivers/USB/LowLevel/Endpoint.h **** 				                                                 *   transfer by the host or device.
 191:../LUFA_100807//LUFA/Drivers/USB/LowLevel/Endpoint.h **** 				                                                 */
 192:../LUFA_100807//LUFA/Drivers/USB/LowLevel/Endpoint.h **** 				ENDPOINT_READYWAIT_DeviceDisconnected      = 2,	/**< Device was disconnected from the host whil
 193:../LUFA_100807//LUFA/Drivers/USB/LowLevel/Endpoint.h **** 				                                                 *   waiting for the endpoint to become ready.
 194:../LUFA_100807//LUFA/Drivers/USB/LowLevel/Endpoint.h **** 				                                                 */
 195:../LUFA_100807//LUFA/Drivers/USB/LowLevel/Endpoint.h **** 				ENDPOINT_READYWAIT_BusSuspended            = 3, /**< The USB bus has been suspended by the host
 196:../LUFA_100807//LUFA/Drivers/USB/LowLevel/Endpoint.h **** 				                                                 *   no USB endpoint traffic can occur until th
 197:../LUFA_100807//LUFA/Drivers/USB/LowLevel/Endpoint.h **** 				                                                 *   has resumed.
 198:../LUFA_100807//LUFA/Drivers/USB/LowLevel/Endpoint.h **** 				                                                 */
 199:../LUFA_100807//LUFA/Drivers/USB/LowLevel/Endpoint.h **** 				ENDPOINT_READYWAIT_Timeout                 = 4, /**< The host failed to accept or send the next
 200:../LUFA_100807//LUFA/Drivers/USB/LowLevel/Endpoint.h **** 				                                                 *   within the software timeout period set by 
 201:../LUFA_100807//LUFA/Drivers/USB/LowLevel/Endpoint.h **** 				                                                 *   \ref USB_STREAM_TIMEOUT_MS macro.
 202:../LUFA_100807//LUFA/Drivers/USB/LowLevel/Endpoint.h **** 				                                                 */
 203:../LUFA_100807//LUFA/Drivers/USB/LowLevel/Endpoint.h **** 			};
 204:../LUFA_100807//LUFA/Drivers/USB/LowLevel/Endpoint.h **** 		
 205:../LUFA_100807//LUFA/Drivers/USB/LowLevel/Endpoint.h **** 			/** Enum for the possible error return codes of the Endpoint_*_Stream_* functions.
 206:../LUFA_100807//LUFA/Drivers/USB/LowLevel/Endpoint.h **** 			 *
 207:../LUFA_100807//LUFA/Drivers/USB/LowLevel/Endpoint.h **** 			 *  \ingroup Group_EndpointStreamRW
 208:../LUFA_100807//LUFA/Drivers/USB/LowLevel/Endpoint.h **** 			 */
 209:../LUFA_100807//LUFA/Drivers/USB/LowLevel/Endpoint.h **** 			enum Endpoint_Stream_RW_ErrorCodes_t
 210:../LUFA_100807//LUFA/Drivers/USB/LowLevel/Endpoint.h **** 			{
 211:../LUFA_100807//LUFA/Drivers/USB/LowLevel/Endpoint.h **** 				ENDPOINT_RWSTREAM_NoError            = 0, /**< Command completed successfully, no error. */
 212:../LUFA_100807//LUFA/Drivers/USB/LowLevel/Endpoint.h **** 				ENDPOINT_RWSTREAM_EndpointStalled    = 1, /**< The endpoint was stalled during the stream
 213:../LUFA_100807//LUFA/Drivers/USB/LowLevel/Endpoint.h **** 				                                           *   transfer by the host or device.
 214:../LUFA_100807//LUFA/Drivers/USB/LowLevel/Endpoint.h **** 				                                           */
 215:../LUFA_100807//LUFA/Drivers/USB/LowLevel/Endpoint.h **** 				ENDPOINT_RWSTREAM_DeviceDisconnected = 2, /**< Device was disconnected from the host during
 216:../LUFA_100807//LUFA/Drivers/USB/LowLevel/Endpoint.h **** 				                                           *   the transfer.
 217:../LUFA_100807//LUFA/Drivers/USB/LowLevel/Endpoint.h **** 				                                           */
 218:../LUFA_100807//LUFA/Drivers/USB/LowLevel/Endpoint.h **** 				ENDPOINT_RWSTREAM_BusSuspended       = 3, /**< The USB bus has been suspended by the host and
 219:../LUFA_100807//LUFA/Drivers/USB/LowLevel/Endpoint.h **** 				                                           *   no USB endpoint traffic can occur until the bus
 220:../LUFA_100807//LUFA/Drivers/USB/LowLevel/Endpoint.h **** 				                                           *   has resumed.
 221:../LUFA_100807//LUFA/Drivers/USB/LowLevel/Endpoint.h **** 				                                           */
 222:../LUFA_100807//LUFA/Drivers/USB/LowLevel/Endpoint.h **** 				ENDPOINT_RWSTREAM_Timeout            = 4, /**< The host failed to accept or send the next packe
 223:../LUFA_100807//LUFA/Drivers/USB/LowLevel/Endpoint.h **** 				                                           *   within the software timeout period set by the
 224:../LUFA_100807//LUFA/Drivers/USB/LowLevel/Endpoint.h **** 				                                           *   \ref USB_STREAM_TIMEOUT_MS macro.
 225:../LUFA_100807//LUFA/Drivers/USB/LowLevel/Endpoint.h **** 				                                           */
 226:../LUFA_100807//LUFA/Drivers/USB/LowLevel/Endpoint.h **** 				ENDPOINT_RWSTREAM_CallbackAborted    = 5, /**< Indicates that the stream's callback function
 227:../LUFA_100807//LUFA/Drivers/USB/LowLevel/Endpoint.h **** 			                                               *   aborted the transfer early.
 228:../LUFA_100807//LUFA/Drivers/USB/LowLevel/Endpoint.h **** 				                                           */
 229:../LUFA_100807//LUFA/Drivers/USB/LowLevel/Endpoint.h **** 			};
 230:../LUFA_100807//LUFA/Drivers/USB/LowLevel/Endpoint.h **** 			
 231:../LUFA_100807//LUFA/Drivers/USB/LowLevel/Endpoint.h **** 			/** Enum for the possible error return codes of the Endpoint_*_Control_Stream_* functions..
 232:../LUFA_100807//LUFA/Drivers/USB/LowLevel/Endpoint.h **** 			 *
 233:../LUFA_100807//LUFA/Drivers/USB/LowLevel/Endpoint.h **** 			 *  \ingroup Group_EndpointStreamRW
 234:../LUFA_100807//LUFA/Drivers/USB/LowLevel/Endpoint.h **** 			 */
 235:../LUFA_100807//LUFA/Drivers/USB/LowLevel/Endpoint.h **** 			enum Endpoint_ControlStream_RW_ErrorCodes_t
 236:../LUFA_100807//LUFA/Drivers/USB/LowLevel/Endpoint.h **** 			{
 237:../LUFA_100807//LUFA/Drivers/USB/LowLevel/Endpoint.h **** 				ENDPOINT_RWCSTREAM_NoError            = 0, /**< Command completed successfully, no error. */
 238:../LUFA_100807//LUFA/Drivers/USB/LowLevel/Endpoint.h **** 				ENDPOINT_RWCSTREAM_HostAborted        = 1, /**< The aborted the transfer prematurely. */
 239:../LUFA_100807//LUFA/Drivers/USB/LowLevel/Endpoint.h **** 				ENDPOINT_RWCSTREAM_DeviceDisconnected = 2, /**< Device was disconnected from the host during
 240:../LUFA_100807//LUFA/Drivers/USB/LowLevel/Endpoint.h **** 				                                            *   the transfer.
 241:../LUFA_100807//LUFA/Drivers/USB/LowLevel/Endpoint.h **** 				                                            */
 242:../LUFA_100807//LUFA/Drivers/USB/LowLevel/Endpoint.h **** 				ENDPOINT_RWCSTREAM_BusSuspended       = 3, /**< The USB bus has been suspended by the host and
 243:../LUFA_100807//LUFA/Drivers/USB/LowLevel/Endpoint.h **** 				                                            *   no USB endpoint traffic can occur until the bus
 244:../LUFA_100807//LUFA/Drivers/USB/LowLevel/Endpoint.h **** 				                                            *   has resumed.
 245:../LUFA_100807//LUFA/Drivers/USB/LowLevel/Endpoint.h **** 				                                            */
 246:../LUFA_100807//LUFA/Drivers/USB/LowLevel/Endpoint.h **** 			};
 247:../LUFA_100807//LUFA/Drivers/USB/LowLevel/Endpoint.h **** 
 248:../LUFA_100807//LUFA/Drivers/USB/LowLevel/Endpoint.h **** 		/* Inline Functions: */
 249:../LUFA_100807//LUFA/Drivers/USB/LowLevel/Endpoint.h **** 			/** Indicates the number of bytes currently stored in the current endpoint's selected bank.
 250:../LUFA_100807//LUFA/Drivers/USB/LowLevel/Endpoint.h **** 			 *
 251:../LUFA_100807//LUFA/Drivers/USB/LowLevel/Endpoint.h **** 			 *  \note The return width of this function may differ, depending on the maximum endpoint bank s
 252:../LUFA_100807//LUFA/Drivers/USB/LowLevel/Endpoint.h **** 			 *        of the selected AVR model.
 253:../LUFA_100807//LUFA/Drivers/USB/LowLevel/Endpoint.h **** 			 *
 254:../LUFA_100807//LUFA/Drivers/USB/LowLevel/Endpoint.h **** 			 *  \ingroup Group_EndpointRW
 255:../LUFA_100807//LUFA/Drivers/USB/LowLevel/Endpoint.h **** 			 *
 256:../LUFA_100807//LUFA/Drivers/USB/LowLevel/Endpoint.h **** 			 *  \return Total number of bytes in the currently selected Endpoint's FIFO buffer.
 257:../LUFA_100807//LUFA/Drivers/USB/LowLevel/Endpoint.h **** 			 */
 258:../LUFA_100807//LUFA/Drivers/USB/LowLevel/Endpoint.h **** 			static inline uint16_t Endpoint_BytesInEndpoint(void) ATTR_WARN_UNUSED_RESULT ATTR_ALWAYS_INLINE
 259:../LUFA_100807//LUFA/Drivers/USB/LowLevel/Endpoint.h **** 			static inline uint16_t Endpoint_BytesInEndpoint(void)
 260:../LUFA_100807//LUFA/Drivers/USB/LowLevel/Endpoint.h **** 			{
 261:../LUFA_100807//LUFA/Drivers/USB/LowLevel/Endpoint.h **** 				#if defined(USB_SERIES_6_AVR) || defined(USB_SERIES_7_AVR)
 262:../LUFA_100807//LUFA/Drivers/USB/LowLevel/Endpoint.h **** 					return UEBCX;
 263:../LUFA_100807//LUFA/Drivers/USB/LowLevel/Endpoint.h **** 				#elif defined(USB_SERIES_4_AVR)
 264:../LUFA_100807//LUFA/Drivers/USB/LowLevel/Endpoint.h **** 					return (((uint16_t)UEBCHX << 8) | UEBCLX);
 265:../LUFA_100807//LUFA/Drivers/USB/LowLevel/Endpoint.h **** 				#elif defined(USB_SERIES_2_AVR)
 266:../LUFA_100807//LUFA/Drivers/USB/LowLevel/Endpoint.h **** 					return UEBCLX;
 267:../LUFA_100807//LUFA/Drivers/USB/LowLevel/Endpoint.h **** 				#endif
 268:../LUFA_100807//LUFA/Drivers/USB/LowLevel/Endpoint.h **** 			}
 269:../LUFA_100807//LUFA/Drivers/USB/LowLevel/Endpoint.h **** 		
 270:../LUFA_100807//LUFA/Drivers/USB/LowLevel/Endpoint.h **** 			/** Get the endpoint address of the currently selected endpoint. This is typically used to save
 271:../LUFA_100807//LUFA/Drivers/USB/LowLevel/Endpoint.h **** 			 *  the currently selected endpoint number so that it can be restored after another endpoint has
 272:../LUFA_100807//LUFA/Drivers/USB/LowLevel/Endpoint.h **** 			 *  been manipulated.
 273:../LUFA_100807//LUFA/Drivers/USB/LowLevel/Endpoint.h **** 			 *
 274:../LUFA_100807//LUFA/Drivers/USB/LowLevel/Endpoint.h **** 			 *  \return Index of the currently selected endpoint.
 275:../LUFA_100807//LUFA/Drivers/USB/LowLevel/Endpoint.h **** 			 */
 276:../LUFA_100807//LUFA/Drivers/USB/LowLevel/Endpoint.h **** 			static inline uint8_t Endpoint_GetCurrentEndpoint(void) ATTR_WARN_UNUSED_RESULT ATTR_ALWAYS_INLI
 277:../LUFA_100807//LUFA/Drivers/USB/LowLevel/Endpoint.h **** 			static inline uint8_t Endpoint_GetCurrentEndpoint(void)
 278:../LUFA_100807//LUFA/Drivers/USB/LowLevel/Endpoint.h **** 			{
 279:../LUFA_100807//LUFA/Drivers/USB/LowLevel/Endpoint.h **** 				#if !defined(CONTROL_ONLY_DEVICE)
 280:../LUFA_100807//LUFA/Drivers/USB/LowLevel/Endpoint.h **** 					return (UENUM & ENDPOINT_EPNUM_MASK);
 281:../LUFA_100807//LUFA/Drivers/USB/LowLevel/Endpoint.h **** 				#else
 282:../LUFA_100807//LUFA/Drivers/USB/LowLevel/Endpoint.h **** 					return ENDPOINT_CONTROLEP;
 283:../LUFA_100807//LUFA/Drivers/USB/LowLevel/Endpoint.h **** 				#endif
 284:../LUFA_100807//LUFA/Drivers/USB/LowLevel/Endpoint.h **** 			}
 285:../LUFA_100807//LUFA/Drivers/USB/LowLevel/Endpoint.h **** 			
 286:../LUFA_100807//LUFA/Drivers/USB/LowLevel/Endpoint.h **** 			/** Selects the given endpoint number. If the address from the device descriptors is used, the
 287:../LUFA_100807//LUFA/Drivers/USB/LowLevel/Endpoint.h **** 			 *  value should be masked with the \ref ENDPOINT_EPNUM_MASK constant to extract only the endpoi
 288:../LUFA_100807//LUFA/Drivers/USB/LowLevel/Endpoint.h **** 			 *  number (and discarding the endpoint direction bit).
 289:../LUFA_100807//LUFA/Drivers/USB/LowLevel/Endpoint.h **** 			 *
 290:../LUFA_100807//LUFA/Drivers/USB/LowLevel/Endpoint.h **** 			 *  Any endpoint operations which do not require the endpoint number to be indicated will operat
 291:../LUFA_100807//LUFA/Drivers/USB/LowLevel/Endpoint.h **** 			 *  the currently selected endpoint.
 292:../LUFA_100807//LUFA/Drivers/USB/LowLevel/Endpoint.h **** 			 *
 293:../LUFA_100807//LUFA/Drivers/USB/LowLevel/Endpoint.h **** 			 *  \param[in] EndpointNumber Endpoint number to select.
 294:../LUFA_100807//LUFA/Drivers/USB/LowLevel/Endpoint.h **** 			 */
 295:../LUFA_100807//LUFA/Drivers/USB/LowLevel/Endpoint.h **** 			static inline void Endpoint_SelectEndpoint(const uint8_t EndpointNumber) ATTR_ALWAYS_INLINE;
 296:../LUFA_100807//LUFA/Drivers/USB/LowLevel/Endpoint.h **** 			static inline void Endpoint_SelectEndpoint(const uint8_t EndpointNumber)
 297:../LUFA_100807//LUFA/Drivers/USB/LowLevel/Endpoint.h **** 			{
 298:../LUFA_100807//LUFA/Drivers/USB/LowLevel/Endpoint.h **** 				#if !defined(CONTROL_ONLY_DEVICE)
 299:../LUFA_100807//LUFA/Drivers/USB/LowLevel/Endpoint.h **** 					UENUM = EndpointNumber;
 300:../LUFA_100807//LUFA/Drivers/USB/LowLevel/Endpoint.h **** 				#endif			
 301:../LUFA_100807//LUFA/Drivers/USB/LowLevel/Endpoint.h **** 			}
 302:../LUFA_100807//LUFA/Drivers/USB/LowLevel/Endpoint.h **** 			
 303:../LUFA_100807//LUFA/Drivers/USB/LowLevel/Endpoint.h **** 			/** Resets the endpoint bank FIFO. This clears all the endpoint banks and resets the USB control
 304:../LUFA_100807//LUFA/Drivers/USB/LowLevel/Endpoint.h **** 			 *  In and Out pointers to the bank's contents.
 305:../LUFA_100807//LUFA/Drivers/USB/LowLevel/Endpoint.h **** 			 *
 306:../LUFA_100807//LUFA/Drivers/USB/LowLevel/Endpoint.h **** 			 *  \param[in] EndpointNumber Endpoint number whose FIFO buffers are to be reset.
 307:../LUFA_100807//LUFA/Drivers/USB/LowLevel/Endpoint.h **** 			 */
 308:../LUFA_100807//LUFA/Drivers/USB/LowLevel/Endpoint.h **** 			static inline void Endpoint_ResetFIFO(const uint8_t EndpointNumber) ATTR_ALWAYS_INLINE;
 309:../LUFA_100807//LUFA/Drivers/USB/LowLevel/Endpoint.h **** 			static inline void Endpoint_ResetFIFO(const uint8_t EndpointNumber)
 310:../LUFA_100807//LUFA/Drivers/USB/LowLevel/Endpoint.h **** 			{
 311:../LUFA_100807//LUFA/Drivers/USB/LowLevel/Endpoint.h **** 				UERST = (1 << EndpointNumber);
 312:../LUFA_100807//LUFA/Drivers/USB/LowLevel/Endpoint.h **** 				UERST = 0;
 313:../LUFA_100807//LUFA/Drivers/USB/LowLevel/Endpoint.h **** 			}
 314:../LUFA_100807//LUFA/Drivers/USB/LowLevel/Endpoint.h **** 			
 315:../LUFA_100807//LUFA/Drivers/USB/LowLevel/Endpoint.h **** 			/** Enables the currently selected endpoint so that data can be sent and received through it to
 316:../LUFA_100807//LUFA/Drivers/USB/LowLevel/Endpoint.h **** 			 *  and from a host.
 317:../LUFA_100807//LUFA/Drivers/USB/LowLevel/Endpoint.h **** 			 *
 318:../LUFA_100807//LUFA/Drivers/USB/LowLevel/Endpoint.h **** 			 *  \note Endpoints must first be configured properly via \ref Endpoint_ConfigureEndpoint().
 319:../LUFA_100807//LUFA/Drivers/USB/LowLevel/Endpoint.h **** 			 */
 320:../LUFA_100807//LUFA/Drivers/USB/LowLevel/Endpoint.h **** 			static inline void Endpoint_EnableEndpoint(void) ATTR_ALWAYS_INLINE;
 321:../LUFA_100807//LUFA/Drivers/USB/LowLevel/Endpoint.h **** 			static inline void Endpoint_EnableEndpoint(void)
 322:../LUFA_100807//LUFA/Drivers/USB/LowLevel/Endpoint.h **** 			{
 323:../LUFA_100807//LUFA/Drivers/USB/LowLevel/Endpoint.h **** 				UECONX |= (1 << EPEN);
 324:../LUFA_100807//LUFA/Drivers/USB/LowLevel/Endpoint.h **** 			}
 325:../LUFA_100807//LUFA/Drivers/USB/LowLevel/Endpoint.h **** 
 326:../LUFA_100807//LUFA/Drivers/USB/LowLevel/Endpoint.h **** 			/** Disables the currently selected endpoint so that data cannot be sent and received through it
 327:../LUFA_100807//LUFA/Drivers/USB/LowLevel/Endpoint.h **** 			 *  to and from a host.
 328:../LUFA_100807//LUFA/Drivers/USB/LowLevel/Endpoint.h **** 			 */
 329:../LUFA_100807//LUFA/Drivers/USB/LowLevel/Endpoint.h **** 			static inline void Endpoint_DisableEndpoint(void) ATTR_ALWAYS_INLINE;
 330:../LUFA_100807//LUFA/Drivers/USB/LowLevel/Endpoint.h **** 			static inline void Endpoint_DisableEndpoint(void)
 331:../LUFA_100807//LUFA/Drivers/USB/LowLevel/Endpoint.h **** 			{
 332:../LUFA_100807//LUFA/Drivers/USB/LowLevel/Endpoint.h **** 				UECONX &= ~(1 << EPEN);
 333:../LUFA_100807//LUFA/Drivers/USB/LowLevel/Endpoint.h **** 			}
 334:../LUFA_100807//LUFA/Drivers/USB/LowLevel/Endpoint.h **** 			
 335:../LUFA_100807//LUFA/Drivers/USB/LowLevel/Endpoint.h **** 			/** Determines if the currently selected endpoint is enabled, but not necessarily configured.
 336:../LUFA_100807//LUFA/Drivers/USB/LowLevel/Endpoint.h **** 			 *
 337:../LUFA_100807//LUFA/Drivers/USB/LowLevel/Endpoint.h **** 			 * \return Boolean True if the currently selected endpoint is enabled, false otherwise.
 338:../LUFA_100807//LUFA/Drivers/USB/LowLevel/Endpoint.h **** 			 */
 339:../LUFA_100807//LUFA/Drivers/USB/LowLevel/Endpoint.h **** 			static inline bool Endpoint_IsEnabled(void) ATTR_WARN_UNUSED_RESULT ATTR_ALWAYS_INLINE;
 340:../LUFA_100807//LUFA/Drivers/USB/LowLevel/Endpoint.h **** 			static inline bool Endpoint_IsEnabled(void)
 341:../LUFA_100807//LUFA/Drivers/USB/LowLevel/Endpoint.h **** 			{
 342:../LUFA_100807//LUFA/Drivers/USB/LowLevel/Endpoint.h **** 				return ((UECONX & (1 << EPEN)) ? true : false);
 343:../LUFA_100807//LUFA/Drivers/USB/LowLevel/Endpoint.h **** 			}
 344:../LUFA_100807//LUFA/Drivers/USB/LowLevel/Endpoint.h **** 			
 345:../LUFA_100807//LUFA/Drivers/USB/LowLevel/Endpoint.h **** 			/** Determines if the currently selected endpoint may be read from (if data is waiting in the en
 346:../LUFA_100807//LUFA/Drivers/USB/LowLevel/Endpoint.h **** 			 *  bank and the endpoint is an OUT direction, or if the bank is not yet full if the endpoint is
 347:../LUFA_100807//LUFA/Drivers/USB/LowLevel/Endpoint.h **** 			 *  direction). This function will return false if an error has occurred in the endpoint, if the
 348:../LUFA_100807//LUFA/Drivers/USB/LowLevel/Endpoint.h **** 			 *  is an OUT direction and no packet (or an empty packet) has been received, or if the endpoint
 349:../LUFA_100807//LUFA/Drivers/USB/LowLevel/Endpoint.h **** 			 *  direction and the endpoint bank is full.
 350:../LUFA_100807//LUFA/Drivers/USB/LowLevel/Endpoint.h **** 			 *
 351:../LUFA_100807//LUFA/Drivers/USB/LowLevel/Endpoint.h **** 			 *  \ingroup Group_EndpointPacketManagement
 352:../LUFA_100807//LUFA/Drivers/USB/LowLevel/Endpoint.h **** 			 *
 353:../LUFA_100807//LUFA/Drivers/USB/LowLevel/Endpoint.h **** 			 *  \return Boolean true if the currently selected endpoint may be read from or written to, depe
 354:../LUFA_100807//LUFA/Drivers/USB/LowLevel/Endpoint.h **** 			 */
 355:../LUFA_100807//LUFA/Drivers/USB/LowLevel/Endpoint.h **** 			static inline bool Endpoint_IsReadWriteAllowed(void) ATTR_WARN_UNUSED_RESULT ATTR_ALWAYS_INLINE;
 356:../LUFA_100807//LUFA/Drivers/USB/LowLevel/Endpoint.h **** 			static inline bool Endpoint_IsReadWriteAllowed(void)
 357:../LUFA_100807//LUFA/Drivers/USB/LowLevel/Endpoint.h **** 			{
 358:../LUFA_100807//LUFA/Drivers/USB/LowLevel/Endpoint.h **** 				return ((UEINTX & (1 << RWAL)) ? true : false);
 359:../LUFA_100807//LUFA/Drivers/USB/LowLevel/Endpoint.h **** 			}
 360:../LUFA_100807//LUFA/Drivers/USB/LowLevel/Endpoint.h **** 			
 361:../LUFA_100807//LUFA/Drivers/USB/LowLevel/Endpoint.h **** 			/** Determines if the currently selected endpoint is configured.
 362:../LUFA_100807//LUFA/Drivers/USB/LowLevel/Endpoint.h **** 			 *
 363:../LUFA_100807//LUFA/Drivers/USB/LowLevel/Endpoint.h **** 			 *  \return Boolean true if the currently selected endpoint has been configured, false otherwise
 364:../LUFA_100807//LUFA/Drivers/USB/LowLevel/Endpoint.h **** 			 */
 365:../LUFA_100807//LUFA/Drivers/USB/LowLevel/Endpoint.h **** 			static inline bool Endpoint_IsConfigured(void) ATTR_WARN_UNUSED_RESULT ATTR_ALWAYS_INLINE;
 366:../LUFA_100807//LUFA/Drivers/USB/LowLevel/Endpoint.h **** 			static inline bool Endpoint_IsConfigured(void)
 367:../LUFA_100807//LUFA/Drivers/USB/LowLevel/Endpoint.h **** 			{
 368:../LUFA_100807//LUFA/Drivers/USB/LowLevel/Endpoint.h **** 				return ((UESTA0X & (1 << CFGOK)) ? true : false);
 369:../LUFA_100807//LUFA/Drivers/USB/LowLevel/Endpoint.h **** 			}
 370:../LUFA_100807//LUFA/Drivers/USB/LowLevel/Endpoint.h **** 			
 371:../LUFA_100807//LUFA/Drivers/USB/LowLevel/Endpoint.h **** 			/** Returns a mask indicating which INTERRUPT type endpoints have interrupted - i.e. their
 372:../LUFA_100807//LUFA/Drivers/USB/LowLevel/Endpoint.h **** 			 *  interrupt duration has elapsed. Which endpoints have interrupted can be determined by
 373:../LUFA_100807//LUFA/Drivers/USB/LowLevel/Endpoint.h **** 			 *  masking the return value against (1 << {Endpoint Number}).
 374:../LUFA_100807//LUFA/Drivers/USB/LowLevel/Endpoint.h **** 			 *
 375:../LUFA_100807//LUFA/Drivers/USB/LowLevel/Endpoint.h **** 			 *  \return Mask whose bits indicate which endpoints have interrupted.
 376:../LUFA_100807//LUFA/Drivers/USB/LowLevel/Endpoint.h **** 			 */
 377:../LUFA_100807//LUFA/Drivers/USB/LowLevel/Endpoint.h **** 			static inline uint8_t Endpoint_GetEndpointInterrupts(void) ATTR_WARN_UNUSED_RESULT ATTR_ALWAYS_I
 378:../LUFA_100807//LUFA/Drivers/USB/LowLevel/Endpoint.h **** 			static inline uint8_t Endpoint_GetEndpointInterrupts(void)
 379:../LUFA_100807//LUFA/Drivers/USB/LowLevel/Endpoint.h **** 			{
 380:../LUFA_100807//LUFA/Drivers/USB/LowLevel/Endpoint.h **** 				return UEINT;
 381:../LUFA_100807//LUFA/Drivers/USB/LowLevel/Endpoint.h **** 			}
 382:../LUFA_100807//LUFA/Drivers/USB/LowLevel/Endpoint.h **** 			
 383:../LUFA_100807//LUFA/Drivers/USB/LowLevel/Endpoint.h **** 			/** Determines if the specified endpoint number has interrupted (valid only for INTERRUPT type
 384:../LUFA_100807//LUFA/Drivers/USB/LowLevel/Endpoint.h **** 			 *  endpoints).
 385:../LUFA_100807//LUFA/Drivers/USB/LowLevel/Endpoint.h **** 			 *
 386:../LUFA_100807//LUFA/Drivers/USB/LowLevel/Endpoint.h **** 			 *  \param[in] EndpointNumber  Index of the endpoint whose interrupt flag should be tested.
 387:../LUFA_100807//LUFA/Drivers/USB/LowLevel/Endpoint.h **** 			 *
 388:../LUFA_100807//LUFA/Drivers/USB/LowLevel/Endpoint.h **** 			 *  \return Boolean true if the specified endpoint has interrupted, false otherwise.
 389:../LUFA_100807//LUFA/Drivers/USB/LowLevel/Endpoint.h **** 			 */
 390:../LUFA_100807//LUFA/Drivers/USB/LowLevel/Endpoint.h **** 			static inline bool Endpoint_HasEndpointInterrupted(const uint8_t EndpointNumber) ATTR_WARN_UNUSE
 391:../LUFA_100807//LUFA/Drivers/USB/LowLevel/Endpoint.h **** 			static inline bool Endpoint_HasEndpointInterrupted(const uint8_t EndpointNumber)
 392:../LUFA_100807//LUFA/Drivers/USB/LowLevel/Endpoint.h **** 			{
 393:../LUFA_100807//LUFA/Drivers/USB/LowLevel/Endpoint.h **** 				return ((UEINT & (1 << EndpointNumber)) ? true : false);
 394:../LUFA_100807//LUFA/Drivers/USB/LowLevel/Endpoint.h **** 			}
 395:../LUFA_100807//LUFA/Drivers/USB/LowLevel/Endpoint.h **** 			
 396:../LUFA_100807//LUFA/Drivers/USB/LowLevel/Endpoint.h **** 			/** Determines if the selected IN endpoint is ready for a new packet.
 397:../LUFA_100807//LUFA/Drivers/USB/LowLevel/Endpoint.h **** 			 *
 398:../LUFA_100807//LUFA/Drivers/USB/LowLevel/Endpoint.h **** 			 *  \ingroup Group_EndpointPacketManagement
 399:../LUFA_100807//LUFA/Drivers/USB/LowLevel/Endpoint.h **** 			 *
 400:../LUFA_100807//LUFA/Drivers/USB/LowLevel/Endpoint.h **** 			 *  \return Boolean true if the current endpoint is ready for an IN packet, false otherwise.
 401:../LUFA_100807//LUFA/Drivers/USB/LowLevel/Endpoint.h **** 			 */
 402:../LUFA_100807//LUFA/Drivers/USB/LowLevel/Endpoint.h **** 			static inline bool Endpoint_IsINReady(void) ATTR_WARN_UNUSED_RESULT ATTR_ALWAYS_INLINE;
 403:../LUFA_100807//LUFA/Drivers/USB/LowLevel/Endpoint.h **** 			static inline bool Endpoint_IsINReady(void)
 404:../LUFA_100807//LUFA/Drivers/USB/LowLevel/Endpoint.h **** 			{
 405:../LUFA_100807//LUFA/Drivers/USB/LowLevel/Endpoint.h **** 				return ((UEINTX & (1 << TXINI))  ? true : false);
 406:../LUFA_100807//LUFA/Drivers/USB/LowLevel/Endpoint.h **** 			}
 407:../LUFA_100807//LUFA/Drivers/USB/LowLevel/Endpoint.h **** 			
 408:../LUFA_100807//LUFA/Drivers/USB/LowLevel/Endpoint.h **** 			/** Determines if the selected OUT endpoint has received new packet.
 409:../LUFA_100807//LUFA/Drivers/USB/LowLevel/Endpoint.h **** 			 *
 410:../LUFA_100807//LUFA/Drivers/USB/LowLevel/Endpoint.h **** 			 *  \ingroup Group_EndpointPacketManagement
 411:../LUFA_100807//LUFA/Drivers/USB/LowLevel/Endpoint.h **** 			 *
 412:../LUFA_100807//LUFA/Drivers/USB/LowLevel/Endpoint.h **** 			 *  \return Boolean true if current endpoint is has received an OUT packet, false otherwise.
 413:../LUFA_100807//LUFA/Drivers/USB/LowLevel/Endpoint.h **** 			 */
 414:../LUFA_100807//LUFA/Drivers/USB/LowLevel/Endpoint.h **** 			static inline bool Endpoint_IsOUTReceived(void) ATTR_WARN_UNUSED_RESULT ATTR_ALWAYS_INLINE;
 415:../LUFA_100807//LUFA/Drivers/USB/LowLevel/Endpoint.h **** 			static inline bool Endpoint_IsOUTReceived(void)
 416:../LUFA_100807//LUFA/Drivers/USB/LowLevel/Endpoint.h **** 			{
 417:../LUFA_100807//LUFA/Drivers/USB/LowLevel/Endpoint.h **** 				return ((UEINTX & (1 << RXOUTI)) ? true : false);
 418:../LUFA_100807//LUFA/Drivers/USB/LowLevel/Endpoint.h **** 			}
 419:../LUFA_100807//LUFA/Drivers/USB/LowLevel/Endpoint.h **** 			
 420:../LUFA_100807//LUFA/Drivers/USB/LowLevel/Endpoint.h **** 			/** Determines if the current CONTROL type endpoint has received a SETUP packet.
 421:../LUFA_100807//LUFA/Drivers/USB/LowLevel/Endpoint.h **** 			 *
 422:../LUFA_100807//LUFA/Drivers/USB/LowLevel/Endpoint.h **** 			 *  \ingroup Group_EndpointPacketManagement
 423:../LUFA_100807//LUFA/Drivers/USB/LowLevel/Endpoint.h **** 			 *
 424:../LUFA_100807//LUFA/Drivers/USB/LowLevel/Endpoint.h **** 			 *  \return Boolean true if the selected endpoint has received a SETUP packet, false otherwise.
 425:../LUFA_100807//LUFA/Drivers/USB/LowLevel/Endpoint.h **** 			 */
 426:../LUFA_100807//LUFA/Drivers/USB/LowLevel/Endpoint.h **** 			static inline bool Endpoint_IsSETUPReceived(void) ATTR_WARN_UNUSED_RESULT ATTR_ALWAYS_INLINE;
 427:../LUFA_100807//LUFA/Drivers/USB/LowLevel/Endpoint.h **** 			static inline bool Endpoint_IsSETUPReceived(void)
 428:../LUFA_100807//LUFA/Drivers/USB/LowLevel/Endpoint.h **** 			{
 429:../LUFA_100807//LUFA/Drivers/USB/LowLevel/Endpoint.h **** 				return ((UEINTX & (1 << RXSTPI)) ? true : false);
 430:../LUFA_100807//LUFA/Drivers/USB/LowLevel/Endpoint.h **** 			}
 431:../LUFA_100807//LUFA/Drivers/USB/LowLevel/Endpoint.h **** 			
 432:../LUFA_100807//LUFA/Drivers/USB/LowLevel/Endpoint.h **** 			/** Clears a received SETUP packet on the currently selected CONTROL type endpoint, freeing up t
 433:../LUFA_100807//LUFA/Drivers/USB/LowLevel/Endpoint.h **** 			 *  endpoint for the next packet.
 434:../LUFA_100807//LUFA/Drivers/USB/LowLevel/Endpoint.h **** 			 *
 435:../LUFA_100807//LUFA/Drivers/USB/LowLevel/Endpoint.h **** 			 *  \ingroup Group_EndpointPacketManagement
 436:../LUFA_100807//LUFA/Drivers/USB/LowLevel/Endpoint.h **** 			 *
 437:../LUFA_100807//LUFA/Drivers/USB/LowLevel/Endpoint.h **** 			 *  \note This is not applicable for non CONTROL type endpoints. 
 438:../LUFA_100807//LUFA/Drivers/USB/LowLevel/Endpoint.h **** 			 */
 439:../LUFA_100807//LUFA/Drivers/USB/LowLevel/Endpoint.h **** 			static inline void Endpoint_ClearSETUP(void) ATTR_ALWAYS_INLINE;
 440:../LUFA_100807//LUFA/Drivers/USB/LowLevel/Endpoint.h **** 			static inline void Endpoint_ClearSETUP(void)
 441:../LUFA_100807//LUFA/Drivers/USB/LowLevel/Endpoint.h **** 			{
 442:../LUFA_100807//LUFA/Drivers/USB/LowLevel/Endpoint.h **** 				UEINTX &= ~(1 << RXSTPI);
 443:../LUFA_100807//LUFA/Drivers/USB/LowLevel/Endpoint.h **** 			}
 444:../LUFA_100807//LUFA/Drivers/USB/LowLevel/Endpoint.h **** 			
 445:../LUFA_100807//LUFA/Drivers/USB/LowLevel/Endpoint.h **** 			/** Sends an IN packet to the host on the currently selected endpoint, freeing up the endpoint f
 446:../LUFA_100807//LUFA/Drivers/USB/LowLevel/Endpoint.h **** 			 *  next packet and switching to the alternative endpoint bank if double banked.
 447:../LUFA_100807//LUFA/Drivers/USB/LowLevel/Endpoint.h **** 			 *
 448:../LUFA_100807//LUFA/Drivers/USB/LowLevel/Endpoint.h **** 			 *  \ingroup Group_EndpointPacketManagement
 449:../LUFA_100807//LUFA/Drivers/USB/LowLevel/Endpoint.h **** 			 */
 450:../LUFA_100807//LUFA/Drivers/USB/LowLevel/Endpoint.h **** 			static inline void Endpoint_ClearIN(void) ATTR_ALWAYS_INLINE;
 451:../LUFA_100807//LUFA/Drivers/USB/LowLevel/Endpoint.h **** 			static inline void Endpoint_ClearIN(void)
 452:../LUFA_100807//LUFA/Drivers/USB/LowLevel/Endpoint.h **** 			{
 453:../LUFA_100807//LUFA/Drivers/USB/LowLevel/Endpoint.h **** 				#if !defined(CONTROL_ONLY_DEVICE)
 454:../LUFA_100807//LUFA/Drivers/USB/LowLevel/Endpoint.h **** 					UEINTX &= ~((1 << TXINI) | (1 << FIFOCON));
 455:../LUFA_100807//LUFA/Drivers/USB/LowLevel/Endpoint.h **** 				#else
 456:../LUFA_100807//LUFA/Drivers/USB/LowLevel/Endpoint.h **** 					UEINTX &= ~(1 << TXINI);
 457:../LUFA_100807//LUFA/Drivers/USB/LowLevel/Endpoint.h **** 				#endif
 458:../LUFA_100807//LUFA/Drivers/USB/LowLevel/Endpoint.h **** 			}
 459:../LUFA_100807//LUFA/Drivers/USB/LowLevel/Endpoint.h **** 			
 460:../LUFA_100807//LUFA/Drivers/USB/LowLevel/Endpoint.h **** 			/** Acknowledges an OUT packet to the host on the currently selected endpoint, freeing up the en
 461:../LUFA_100807//LUFA/Drivers/USB/LowLevel/Endpoint.h **** 			 *  for the next packet and switching to the alternative endpoint bank if double banked.
 462:../LUFA_100807//LUFA/Drivers/USB/LowLevel/Endpoint.h **** 			 *
 463:../LUFA_100807//LUFA/Drivers/USB/LowLevel/Endpoint.h **** 			 *  \ingroup Group_EndpointPacketManagement
 464:../LUFA_100807//LUFA/Drivers/USB/LowLevel/Endpoint.h **** 			 */
 465:../LUFA_100807//LUFA/Drivers/USB/LowLevel/Endpoint.h **** 			static inline void Endpoint_ClearOUT(void) ATTR_ALWAYS_INLINE;
 466:../LUFA_100807//LUFA/Drivers/USB/LowLevel/Endpoint.h **** 			static inline void Endpoint_ClearOUT(void)
 467:../LUFA_100807//LUFA/Drivers/USB/LowLevel/Endpoint.h **** 			{
 468:../LUFA_100807//LUFA/Drivers/USB/LowLevel/Endpoint.h **** 				#if !defined(CONTROL_ONLY_DEVICE)
 469:../LUFA_100807//LUFA/Drivers/USB/LowLevel/Endpoint.h **** 					UEINTX &= ~((1 << RXOUTI) | (1 << FIFOCON));
 470:../LUFA_100807//LUFA/Drivers/USB/LowLevel/Endpoint.h **** 				#else
 471:../LUFA_100807//LUFA/Drivers/USB/LowLevel/Endpoint.h **** 					UEINTX &= ~(1 << RXOUTI);	
 472:../LUFA_100807//LUFA/Drivers/USB/LowLevel/Endpoint.h **** 				#endif
 473:../LUFA_100807//LUFA/Drivers/USB/LowLevel/Endpoint.h **** 			}
 474:../LUFA_100807//LUFA/Drivers/USB/LowLevel/Endpoint.h **** 			
 475:../LUFA_100807//LUFA/Drivers/USB/LowLevel/Endpoint.h **** 			/** Stalls the current endpoint, indicating to the host that a logical problem occurred with the
 476:../LUFA_100807//LUFA/Drivers/USB/LowLevel/Endpoint.h **** 			 *  indicated endpoint and that the current transfer sequence should be aborted. This provides a
 477:../LUFA_100807//LUFA/Drivers/USB/LowLevel/Endpoint.h **** 			 *  way for devices to indicate invalid commands to the host so that the current transfer can be
 478:../LUFA_100807//LUFA/Drivers/USB/LowLevel/Endpoint.h **** 			 *  aborted and the host can begin its own recovery sequence.
 479:../LUFA_100807//LUFA/Drivers/USB/LowLevel/Endpoint.h **** 			 *
 480:../LUFA_100807//LUFA/Drivers/USB/LowLevel/Endpoint.h **** 			 *  The currently selected endpoint remains stalled until either the \ref Endpoint_ClearStall() 
 481:../LUFA_100807//LUFA/Drivers/USB/LowLevel/Endpoint.h **** 			 *  is called, or the host issues a CLEAR FEATURE request to the device for the currently select
 482:../LUFA_100807//LUFA/Drivers/USB/LowLevel/Endpoint.h **** 			 *  endpoint.
 483:../LUFA_100807//LUFA/Drivers/USB/LowLevel/Endpoint.h **** 			 *
 484:../LUFA_100807//LUFA/Drivers/USB/LowLevel/Endpoint.h **** 			 *  \ingroup Group_EndpointPacketManagement
 485:../LUFA_100807//LUFA/Drivers/USB/LowLevel/Endpoint.h **** 			 */
 486:../LUFA_100807//LUFA/Drivers/USB/LowLevel/Endpoint.h **** 			static inline void Endpoint_StallTransaction(void) ATTR_ALWAYS_INLINE;
 487:../LUFA_100807//LUFA/Drivers/USB/LowLevel/Endpoint.h **** 			static inline void Endpoint_StallTransaction(void)
 488:../LUFA_100807//LUFA/Drivers/USB/LowLevel/Endpoint.h **** 			{
 489:../LUFA_100807//LUFA/Drivers/USB/LowLevel/Endpoint.h **** 				UECONX |= (1 << STALLRQ);
 490:../LUFA_100807//LUFA/Drivers/USB/LowLevel/Endpoint.h **** 			}
 491:../LUFA_100807//LUFA/Drivers/USB/LowLevel/Endpoint.h **** 			
 492:../LUFA_100807//LUFA/Drivers/USB/LowLevel/Endpoint.h **** 			/** Clears the STALL condition on the currently selected endpoint.
 493:../LUFA_100807//LUFA/Drivers/USB/LowLevel/Endpoint.h **** 			 *
 494:../LUFA_100807//LUFA/Drivers/USB/LowLevel/Endpoint.h **** 			 *  \ingroup Group_EndpointPacketManagement
 495:../LUFA_100807//LUFA/Drivers/USB/LowLevel/Endpoint.h **** 			 */
 496:../LUFA_100807//LUFA/Drivers/USB/LowLevel/Endpoint.h **** 			static inline void Endpoint_ClearStall(void) ATTR_ALWAYS_INLINE;
 497:../LUFA_100807//LUFA/Drivers/USB/LowLevel/Endpoint.h **** 			static inline void Endpoint_ClearStall(void)
 498:../LUFA_100807//LUFA/Drivers/USB/LowLevel/Endpoint.h **** 			{
 499:../LUFA_100807//LUFA/Drivers/USB/LowLevel/Endpoint.h **** 				UECONX |= (1 << STALLRQC);
 500:../LUFA_100807//LUFA/Drivers/USB/LowLevel/Endpoint.h **** 			}
 501:../LUFA_100807//LUFA/Drivers/USB/LowLevel/Endpoint.h **** 			
 502:../LUFA_100807//LUFA/Drivers/USB/LowLevel/Endpoint.h **** 			/** Determines if the currently selected endpoint is stalled, false otherwise.
 503:../LUFA_100807//LUFA/Drivers/USB/LowLevel/Endpoint.h **** 			 *
 504:../LUFA_100807//LUFA/Drivers/USB/LowLevel/Endpoint.h **** 			 *  \ingroup Group_EndpointPacketManagement
 505:../LUFA_100807//LUFA/Drivers/USB/LowLevel/Endpoint.h **** 			 *
 506:../LUFA_100807//LUFA/Drivers/USB/LowLevel/Endpoint.h **** 			 *  \return Boolean true if the currently selected endpoint is stalled, false otherwise.
 507:../LUFA_100807//LUFA/Drivers/USB/LowLevel/Endpoint.h **** 			 */
 508:../LUFA_100807//LUFA/Drivers/USB/LowLevel/Endpoint.h **** 			static inline bool Endpoint_IsStalled(void) ATTR_WARN_UNUSED_RESULT ATTR_ALWAYS_INLINE;
 509:../LUFA_100807//LUFA/Drivers/USB/LowLevel/Endpoint.h **** 			static inline bool Endpoint_IsStalled(void)
 510:../LUFA_100807//LUFA/Drivers/USB/LowLevel/Endpoint.h **** 			{
 511:../LUFA_100807//LUFA/Drivers/USB/LowLevel/Endpoint.h **** 				return ((UECONX & (1 << STALLRQ)) ? true : false);
 512:../LUFA_100807//LUFA/Drivers/USB/LowLevel/Endpoint.h **** 			}
 513:../LUFA_100807//LUFA/Drivers/USB/LowLevel/Endpoint.h **** 			
 514:../LUFA_100807//LUFA/Drivers/USB/LowLevel/Endpoint.h **** 			/** Resets the data toggle of the currently selected endpoint. */
 515:../LUFA_100807//LUFA/Drivers/USB/LowLevel/Endpoint.h **** 			static inline void Endpoint_ResetDataToggle(void) ATTR_ALWAYS_INLINE;
 516:../LUFA_100807//LUFA/Drivers/USB/LowLevel/Endpoint.h **** 			static inline void Endpoint_ResetDataToggle(void)
 517:../LUFA_100807//LUFA/Drivers/USB/LowLevel/Endpoint.h **** 			{
 518:../LUFA_100807//LUFA/Drivers/USB/LowLevel/Endpoint.h **** 				UECONX |= (1 << RSTDT);
 519:../LUFA_100807//LUFA/Drivers/USB/LowLevel/Endpoint.h **** 			}
 520:../LUFA_100807//LUFA/Drivers/USB/LowLevel/Endpoint.h **** 			
 521:../LUFA_100807//LUFA/Drivers/USB/LowLevel/Endpoint.h **** 			/** Determines the currently selected endpoint's direction.
 522:../LUFA_100807//LUFA/Drivers/USB/LowLevel/Endpoint.h **** 			 *
 523:../LUFA_100807//LUFA/Drivers/USB/LowLevel/Endpoint.h **** 			 *  \return The currently selected endpoint's direction, as a ENDPOINT_DIR_* mask.
 524:../LUFA_100807//LUFA/Drivers/USB/LowLevel/Endpoint.h **** 			 */
 525:../LUFA_100807//LUFA/Drivers/USB/LowLevel/Endpoint.h **** 			static inline uint8_t Endpoint_GetEndpointDirection(void) ATTR_WARN_UNUSED_RESULT ATTR_ALWAYS_IN
 526:../LUFA_100807//LUFA/Drivers/USB/LowLevel/Endpoint.h **** 			static inline uint8_t Endpoint_GetEndpointDirection(void)
 527:../LUFA_100807//LUFA/Drivers/USB/LowLevel/Endpoint.h **** 			{
 528:../LUFA_100807//LUFA/Drivers/USB/LowLevel/Endpoint.h **** 				return (UECFG0X & ENDPOINT_DIR_IN);
 529:../LUFA_100807//LUFA/Drivers/USB/LowLevel/Endpoint.h **** 			}
 530:../LUFA_100807//LUFA/Drivers/USB/LowLevel/Endpoint.h **** 
 531:../LUFA_100807//LUFA/Drivers/USB/LowLevel/Endpoint.h **** 			/** Sets the direction of the currently selected endpoint.
 532:../LUFA_100807//LUFA/Drivers/USB/LowLevel/Endpoint.h **** 			 *
 533:../LUFA_100807//LUFA/Drivers/USB/LowLevel/Endpoint.h **** 			 *  \param[in] DirectionMask  New endpoint direction, as a ENDPOINT_DIR_* mask.
 534:../LUFA_100807//LUFA/Drivers/USB/LowLevel/Endpoint.h **** 			 */
 535:../LUFA_100807//LUFA/Drivers/USB/LowLevel/Endpoint.h **** 			static inline void Endpoint_SetEndpointDirection(const uint8_t DirectionMask) ATTR_ALWAYS_INLINE
 536:../LUFA_100807//LUFA/Drivers/USB/LowLevel/Endpoint.h **** 			static inline void Endpoint_SetEndpointDirection(const uint8_t DirectionMask)
 537:../LUFA_100807//LUFA/Drivers/USB/LowLevel/Endpoint.h **** 			{
 538:../LUFA_100807//LUFA/Drivers/USB/LowLevel/Endpoint.h **** 				UECFG0X = ((UECFG0X & ~ENDPOINT_DIR_IN) | DirectionMask);
 539:../LUFA_100807//LUFA/Drivers/USB/LowLevel/Endpoint.h **** 			}
 540:../LUFA_100807//LUFA/Drivers/USB/LowLevel/Endpoint.h **** 
 541:../LUFA_100807//LUFA/Drivers/USB/LowLevel/Endpoint.h **** 			/** Reads one byte from the currently selected endpoint's bank, for OUT direction endpoints.
 542:../LUFA_100807//LUFA/Drivers/USB/LowLevel/Endpoint.h **** 			 *
 543:../LUFA_100807//LUFA/Drivers/USB/LowLevel/Endpoint.h **** 			 *  \ingroup Group_EndpointPrimitiveRW
 544:../LUFA_100807//LUFA/Drivers/USB/LowLevel/Endpoint.h **** 			 *
 545:../LUFA_100807//LUFA/Drivers/USB/LowLevel/Endpoint.h **** 			 *  \return Next byte in the currently selected endpoint's FIFO buffer.
 546:../LUFA_100807//LUFA/Drivers/USB/LowLevel/Endpoint.h **** 			 */
 547:../LUFA_100807//LUFA/Drivers/USB/LowLevel/Endpoint.h **** 			static inline uint8_t Endpoint_Read_Byte(void) ATTR_WARN_UNUSED_RESULT ATTR_ALWAYS_INLINE;
 548:../LUFA_100807//LUFA/Drivers/USB/LowLevel/Endpoint.h **** 			static inline uint8_t Endpoint_Read_Byte(void)
 549:../LUFA_100807//LUFA/Drivers/USB/LowLevel/Endpoint.h **** 			{
 550:../LUFA_100807//LUFA/Drivers/USB/LowLevel/Endpoint.h **** 				return UEDATX;
 551:../LUFA_100807//LUFA/Drivers/USB/LowLevel/Endpoint.h **** 			}
 552:../LUFA_100807//LUFA/Drivers/USB/LowLevel/Endpoint.h **** 
 553:../LUFA_100807//LUFA/Drivers/USB/LowLevel/Endpoint.h **** 			/** Writes one byte from the currently selected endpoint's bank, for IN direction endpoints.
 554:../LUFA_100807//LUFA/Drivers/USB/LowLevel/Endpoint.h **** 			 *
 555:../LUFA_100807//LUFA/Drivers/USB/LowLevel/Endpoint.h **** 			 *  \ingroup Group_EndpointPrimitiveRW
 556:../LUFA_100807//LUFA/Drivers/USB/LowLevel/Endpoint.h **** 			 *
 557:../LUFA_100807//LUFA/Drivers/USB/LowLevel/Endpoint.h **** 			 *  \param[in] Byte  Next byte to write into the the currently selected endpoint's FIFO buffer.
 558:../LUFA_100807//LUFA/Drivers/USB/LowLevel/Endpoint.h **** 			 */
 559:../LUFA_100807//LUFA/Drivers/USB/LowLevel/Endpoint.h **** 			static inline void Endpoint_Write_Byte(const uint8_t Byte) ATTR_ALWAYS_INLINE;
 560:../LUFA_100807//LUFA/Drivers/USB/LowLevel/Endpoint.h **** 			static inline void Endpoint_Write_Byte(const uint8_t Byte)
 561:../LUFA_100807//LUFA/Drivers/USB/LowLevel/Endpoint.h **** 			{
 562:../LUFA_100807//LUFA/Drivers/USB/LowLevel/Endpoint.h **** 				UEDATX = Byte;
 563:../LUFA_100807//LUFA/Drivers/USB/LowLevel/Endpoint.h **** 			}
 564:../LUFA_100807//LUFA/Drivers/USB/LowLevel/Endpoint.h **** 
 565:../LUFA_100807//LUFA/Drivers/USB/LowLevel/Endpoint.h **** 			/** Discards one byte from the currently selected endpoint's bank, for OUT direction endpoints.
 566:../LUFA_100807//LUFA/Drivers/USB/LowLevel/Endpoint.h **** 			 *
 567:../LUFA_100807//LUFA/Drivers/USB/LowLevel/Endpoint.h **** 			 *  \ingroup Group_EndpointPrimitiveRW
 568:../LUFA_100807//LUFA/Drivers/USB/LowLevel/Endpoint.h **** 			 */
 569:../LUFA_100807//LUFA/Drivers/USB/LowLevel/Endpoint.h **** 			static inline void Endpoint_Discard_Byte(void) ATTR_ALWAYS_INLINE;
 570:../LUFA_100807//LUFA/Drivers/USB/LowLevel/Endpoint.h **** 			static inline void Endpoint_Discard_Byte(void)
 571:../LUFA_100807//LUFA/Drivers/USB/LowLevel/Endpoint.h **** 			{
 572:../LUFA_100807//LUFA/Drivers/USB/LowLevel/Endpoint.h **** 				uint8_t Dummy;
 573:../LUFA_100807//LUFA/Drivers/USB/LowLevel/Endpoint.h **** 				
 574:../LUFA_100807//LUFA/Drivers/USB/LowLevel/Endpoint.h **** 				Dummy = UEDATX;
 575:../LUFA_100807//LUFA/Drivers/USB/LowLevel/Endpoint.h **** 			}
 576:../LUFA_100807//LUFA/Drivers/USB/LowLevel/Endpoint.h **** 			
 577:../LUFA_100807//LUFA/Drivers/USB/LowLevel/Endpoint.h **** 			/** Reads two bytes from the currently selected endpoint's bank in little endian format, for OUT
 578:../LUFA_100807//LUFA/Drivers/USB/LowLevel/Endpoint.h **** 			 *  direction endpoints.
 579:../LUFA_100807//LUFA/Drivers/USB/LowLevel/Endpoint.h **** 			 *
 580:../LUFA_100807//LUFA/Drivers/USB/LowLevel/Endpoint.h **** 			 *  \ingroup Group_EndpointPrimitiveRW
 581:../LUFA_100807//LUFA/Drivers/USB/LowLevel/Endpoint.h **** 			 *
 582:../LUFA_100807//LUFA/Drivers/USB/LowLevel/Endpoint.h **** 			 *  \return Next word in the currently selected endpoint's FIFO buffer.
 583:../LUFA_100807//LUFA/Drivers/USB/LowLevel/Endpoint.h **** 			 */
 584:../LUFA_100807//LUFA/Drivers/USB/LowLevel/Endpoint.h **** 			static inline uint16_t Endpoint_Read_Word_LE(void) ATTR_WARN_UNUSED_RESULT ATTR_ALWAYS_INLINE;
 585:../LUFA_100807//LUFA/Drivers/USB/LowLevel/Endpoint.h **** 			static inline uint16_t Endpoint_Read_Word_LE(void)
 586:../LUFA_100807//LUFA/Drivers/USB/LowLevel/Endpoint.h **** 			{
 587:../LUFA_100807//LUFA/Drivers/USB/LowLevel/Endpoint.h **** 				union
 588:../LUFA_100807//LUFA/Drivers/USB/LowLevel/Endpoint.h **** 				{
 589:../LUFA_100807//LUFA/Drivers/USB/LowLevel/Endpoint.h **** 					uint16_t Word;
 590:../LUFA_100807//LUFA/Drivers/USB/LowLevel/Endpoint.h **** 					uint8_t  Bytes[2];
 591:../LUFA_100807//LUFA/Drivers/USB/LowLevel/Endpoint.h **** 				} Data;
 592:../LUFA_100807//LUFA/Drivers/USB/LowLevel/Endpoint.h **** 				
 593:../LUFA_100807//LUFA/Drivers/USB/LowLevel/Endpoint.h **** 				Data.Bytes[0] = UEDATX;
 594:../LUFA_100807//LUFA/Drivers/USB/LowLevel/Endpoint.h **** 				Data.Bytes[1] = UEDATX;
 595:../LUFA_100807//LUFA/Drivers/USB/LowLevel/Endpoint.h **** 			
 596:../LUFA_100807//LUFA/Drivers/USB/LowLevel/Endpoint.h **** 				return Data.Word;
 597:../LUFA_100807//LUFA/Drivers/USB/LowLevel/Endpoint.h **** 			}
 598:../LUFA_100807//LUFA/Drivers/USB/LowLevel/Endpoint.h **** 
 599:../LUFA_100807//LUFA/Drivers/USB/LowLevel/Endpoint.h **** 			/** Reads two bytes from the currently selected endpoint's bank in big endian format, for OUT
 600:../LUFA_100807//LUFA/Drivers/USB/LowLevel/Endpoint.h **** 			 *  direction endpoints.
 601:../LUFA_100807//LUFA/Drivers/USB/LowLevel/Endpoint.h **** 			 *
 602:../LUFA_100807//LUFA/Drivers/USB/LowLevel/Endpoint.h **** 			 *  \ingroup Group_EndpointPrimitiveRW
 603:../LUFA_100807//LUFA/Drivers/USB/LowLevel/Endpoint.h **** 			 *
 604:../LUFA_100807//LUFA/Drivers/USB/LowLevel/Endpoint.h **** 			 *  \return Next word in the currently selected endpoint's FIFO buffer.
 605:../LUFA_100807//LUFA/Drivers/USB/LowLevel/Endpoint.h **** 			 */
 606:../LUFA_100807//LUFA/Drivers/USB/LowLevel/Endpoint.h **** 			static inline uint16_t Endpoint_Read_Word_BE(void) ATTR_WARN_UNUSED_RESULT ATTR_ALWAYS_INLINE;
 607:../LUFA_100807//LUFA/Drivers/USB/LowLevel/Endpoint.h **** 			static inline uint16_t Endpoint_Read_Word_BE(void)
 608:../LUFA_100807//LUFA/Drivers/USB/LowLevel/Endpoint.h **** 			{
 609:../LUFA_100807//LUFA/Drivers/USB/LowLevel/Endpoint.h **** 				union
 610:../LUFA_100807//LUFA/Drivers/USB/LowLevel/Endpoint.h **** 				{
 611:../LUFA_100807//LUFA/Drivers/USB/LowLevel/Endpoint.h **** 					uint16_t Word;
 612:../LUFA_100807//LUFA/Drivers/USB/LowLevel/Endpoint.h **** 					uint8_t  Bytes[2];
 613:../LUFA_100807//LUFA/Drivers/USB/LowLevel/Endpoint.h **** 				} Data;
 614:../LUFA_100807//LUFA/Drivers/USB/LowLevel/Endpoint.h **** 				
 615:../LUFA_100807//LUFA/Drivers/USB/LowLevel/Endpoint.h **** 				Data.Bytes[1] = UEDATX;
 616:../LUFA_100807//LUFA/Drivers/USB/LowLevel/Endpoint.h **** 				Data.Bytes[0] = UEDATX;
 617:../LUFA_100807//LUFA/Drivers/USB/LowLevel/Endpoint.h **** 			
 618:../LUFA_100807//LUFA/Drivers/USB/LowLevel/Endpoint.h **** 				return Data.Word;
 619:../LUFA_100807//LUFA/Drivers/USB/LowLevel/Endpoint.h **** 			}
 620:../LUFA_100807//LUFA/Drivers/USB/LowLevel/Endpoint.h **** 
 621:../LUFA_100807//LUFA/Drivers/USB/LowLevel/Endpoint.h **** 			/** Writes two bytes to the currently selected endpoint's bank in little endian format, for IN
 622:../LUFA_100807//LUFA/Drivers/USB/LowLevel/Endpoint.h **** 			 *  direction endpoints.
 623:../LUFA_100807//LUFA/Drivers/USB/LowLevel/Endpoint.h **** 			 *
 624:../LUFA_100807//LUFA/Drivers/USB/LowLevel/Endpoint.h **** 			 *  \ingroup Group_EndpointPrimitiveRW
 625:../LUFA_100807//LUFA/Drivers/USB/LowLevel/Endpoint.h **** 			 *
 626:../LUFA_100807//LUFA/Drivers/USB/LowLevel/Endpoint.h **** 			 *  \param[in] Word  Next word to write to the currently selected endpoint's FIFO buffer.
 627:../LUFA_100807//LUFA/Drivers/USB/LowLevel/Endpoint.h **** 			 */
 628:../LUFA_100807//LUFA/Drivers/USB/LowLevel/Endpoint.h **** 			static inline void Endpoint_Write_Word_LE(const uint16_t Word) ATTR_ALWAYS_INLINE;
 629:../LUFA_100807//LUFA/Drivers/USB/LowLevel/Endpoint.h **** 			static inline void Endpoint_Write_Word_LE(const uint16_t Word)
 630:../LUFA_100807//LUFA/Drivers/USB/LowLevel/Endpoint.h **** 			{
 631:../LUFA_100807//LUFA/Drivers/USB/LowLevel/Endpoint.h **** 				UEDATX = (Word & 0xFF);
 632:../LUFA_100807//LUFA/Drivers/USB/LowLevel/Endpoint.h **** 				UEDATX = (Word >> 8);
 633:../LUFA_100807//LUFA/Drivers/USB/LowLevel/Endpoint.h **** 			}
 634:../LUFA_100807//LUFA/Drivers/USB/LowLevel/Endpoint.h **** 			
 635:../LUFA_100807//LUFA/Drivers/USB/LowLevel/Endpoint.h **** 			/** Writes two bytes to the currently selected endpoint's bank in big endian format, for IN
 636:../LUFA_100807//LUFA/Drivers/USB/LowLevel/Endpoint.h **** 			 *  direction endpoints.
 637:../LUFA_100807//LUFA/Drivers/USB/LowLevel/Endpoint.h **** 			 *
 638:../LUFA_100807//LUFA/Drivers/USB/LowLevel/Endpoint.h **** 			 *  \ingroup Group_EndpointPrimitiveRW
 639:../LUFA_100807//LUFA/Drivers/USB/LowLevel/Endpoint.h **** 			 *
 640:../LUFA_100807//LUFA/Drivers/USB/LowLevel/Endpoint.h **** 			 *  \param[in] Word  Next word to write to the currently selected endpoint's FIFO buffer.
 641:../LUFA_100807//LUFA/Drivers/USB/LowLevel/Endpoint.h **** 			 */
 642:../LUFA_100807//LUFA/Drivers/USB/LowLevel/Endpoint.h **** 			static inline void Endpoint_Write_Word_BE(const uint16_t Word) ATTR_ALWAYS_INLINE;
 643:../LUFA_100807//LUFA/Drivers/USB/LowLevel/Endpoint.h **** 			static inline void Endpoint_Write_Word_BE(const uint16_t Word)
 644:../LUFA_100807//LUFA/Drivers/USB/LowLevel/Endpoint.h **** 			{
 645:../LUFA_100807//LUFA/Drivers/USB/LowLevel/Endpoint.h **** 				UEDATX = (Word >> 8);
 646:../LUFA_100807//LUFA/Drivers/USB/LowLevel/Endpoint.h **** 				UEDATX = (Word & 0xFF);
 647:../LUFA_100807//LUFA/Drivers/USB/LowLevel/Endpoint.h **** 			}
 648:../LUFA_100807//LUFA/Drivers/USB/LowLevel/Endpoint.h **** 
 649:../LUFA_100807//LUFA/Drivers/USB/LowLevel/Endpoint.h **** 			/** Discards two bytes from the currently selected endpoint's bank, for OUT direction endpoints.
 650:../LUFA_100807//LUFA/Drivers/USB/LowLevel/Endpoint.h **** 			 *
 651:../LUFA_100807//LUFA/Drivers/USB/LowLevel/Endpoint.h **** 			 *  \ingroup Group_EndpointPrimitiveRW
 652:../LUFA_100807//LUFA/Drivers/USB/LowLevel/Endpoint.h **** 			 */
 653:../LUFA_100807//LUFA/Drivers/USB/LowLevel/Endpoint.h **** 			static inline void Endpoint_Discard_Word(void) ATTR_ALWAYS_INLINE;
 654:../LUFA_100807//LUFA/Drivers/USB/LowLevel/Endpoint.h **** 			static inline void Endpoint_Discard_Word(void)
 655:../LUFA_100807//LUFA/Drivers/USB/LowLevel/Endpoint.h **** 			{
 656:../LUFA_100807//LUFA/Drivers/USB/LowLevel/Endpoint.h **** 				uint8_t Dummy;
 657:../LUFA_100807//LUFA/Drivers/USB/LowLevel/Endpoint.h **** 				
 658:../LUFA_100807//LUFA/Drivers/USB/LowLevel/Endpoint.h **** 				Dummy = UEDATX;
 659:../LUFA_100807//LUFA/Drivers/USB/LowLevel/Endpoint.h **** 				Dummy = UEDATX;
 660:../LUFA_100807//LUFA/Drivers/USB/LowLevel/Endpoint.h **** 			}
 661:../LUFA_100807//LUFA/Drivers/USB/LowLevel/Endpoint.h **** 
 662:../LUFA_100807//LUFA/Drivers/USB/LowLevel/Endpoint.h **** 			/** Reads four bytes from the currently selected endpoint's bank in little endian format, for OU
 663:../LUFA_100807//LUFA/Drivers/USB/LowLevel/Endpoint.h **** 			 *  direction endpoints.
 664:../LUFA_100807//LUFA/Drivers/USB/LowLevel/Endpoint.h **** 			 *
 665:../LUFA_100807//LUFA/Drivers/USB/LowLevel/Endpoint.h **** 			 *  \ingroup Group_EndpointPrimitiveRW
 666:../LUFA_100807//LUFA/Drivers/USB/LowLevel/Endpoint.h **** 			 *
 667:../LUFA_100807//LUFA/Drivers/USB/LowLevel/Endpoint.h **** 			 *  \return Next double word in the currently selected endpoint's FIFO buffer.
 668:../LUFA_100807//LUFA/Drivers/USB/LowLevel/Endpoint.h **** 			 */
 669:../LUFA_100807//LUFA/Drivers/USB/LowLevel/Endpoint.h **** 			static inline uint32_t Endpoint_Read_DWord_LE(void) ATTR_WARN_UNUSED_RESULT ATTR_ALWAYS_INLINE;
 670:../LUFA_100807//LUFA/Drivers/USB/LowLevel/Endpoint.h **** 			static inline uint32_t Endpoint_Read_DWord_LE(void)
 671:../LUFA_100807//LUFA/Drivers/USB/LowLevel/Endpoint.h **** 			{
 672:../LUFA_100807//LUFA/Drivers/USB/LowLevel/Endpoint.h **** 				union
 673:../LUFA_100807//LUFA/Drivers/USB/LowLevel/Endpoint.h **** 				{
 674:../LUFA_100807//LUFA/Drivers/USB/LowLevel/Endpoint.h **** 					uint32_t DWord;
 675:../LUFA_100807//LUFA/Drivers/USB/LowLevel/Endpoint.h **** 					uint8_t  Bytes[4];
 676:../LUFA_100807//LUFA/Drivers/USB/LowLevel/Endpoint.h **** 				} Data;
 677:../LUFA_100807//LUFA/Drivers/USB/LowLevel/Endpoint.h **** 				
 678:../LUFA_100807//LUFA/Drivers/USB/LowLevel/Endpoint.h **** 				Data.Bytes[0] = UEDATX;
 679:../LUFA_100807//LUFA/Drivers/USB/LowLevel/Endpoint.h **** 				Data.Bytes[1] = UEDATX;
 680:../LUFA_100807//LUFA/Drivers/USB/LowLevel/Endpoint.h **** 				Data.Bytes[2] = UEDATX;
 681:../LUFA_100807//LUFA/Drivers/USB/LowLevel/Endpoint.h **** 				Data.Bytes[3] = UEDATX;
 682:../LUFA_100807//LUFA/Drivers/USB/LowLevel/Endpoint.h **** 			
 683:../LUFA_100807//LUFA/Drivers/USB/LowLevel/Endpoint.h **** 				return Data.DWord;
 684:../LUFA_100807//LUFA/Drivers/USB/LowLevel/Endpoint.h **** 			}
 685:../LUFA_100807//LUFA/Drivers/USB/LowLevel/Endpoint.h **** 
 686:../LUFA_100807//LUFA/Drivers/USB/LowLevel/Endpoint.h **** 			/** Reads four bytes from the currently selected endpoint's bank in big endian format, for OUT
 687:../LUFA_100807//LUFA/Drivers/USB/LowLevel/Endpoint.h **** 			 *  direction endpoints.
 688:../LUFA_100807//LUFA/Drivers/USB/LowLevel/Endpoint.h **** 			 *
 689:../LUFA_100807//LUFA/Drivers/USB/LowLevel/Endpoint.h **** 			 *  \ingroup Group_EndpointPrimitiveRW
 690:../LUFA_100807//LUFA/Drivers/USB/LowLevel/Endpoint.h **** 			 *
 691:../LUFA_100807//LUFA/Drivers/USB/LowLevel/Endpoint.h **** 			 *  \return Next double word in the currently selected endpoint's FIFO buffer.
 692:../LUFA_100807//LUFA/Drivers/USB/LowLevel/Endpoint.h **** 			 */
 693:../LUFA_100807//LUFA/Drivers/USB/LowLevel/Endpoint.h **** 			static inline uint32_t Endpoint_Read_DWord_BE(void) ATTR_WARN_UNUSED_RESULT ATTR_ALWAYS_INLINE;
 694:../LUFA_100807//LUFA/Drivers/USB/LowLevel/Endpoint.h **** 			static inline uint32_t Endpoint_Read_DWord_BE(void)
 695:../LUFA_100807//LUFA/Drivers/USB/LowLevel/Endpoint.h **** 			{
 696:../LUFA_100807//LUFA/Drivers/USB/LowLevel/Endpoint.h **** 				union
 697:../LUFA_100807//LUFA/Drivers/USB/LowLevel/Endpoint.h **** 				{
 698:../LUFA_100807//LUFA/Drivers/USB/LowLevel/Endpoint.h **** 					uint32_t DWord;
 699:../LUFA_100807//LUFA/Drivers/USB/LowLevel/Endpoint.h **** 					uint8_t  Bytes[4];
 700:../LUFA_100807//LUFA/Drivers/USB/LowLevel/Endpoint.h **** 				} Data;
 701:../LUFA_100807//LUFA/Drivers/USB/LowLevel/Endpoint.h **** 				
 702:../LUFA_100807//LUFA/Drivers/USB/LowLevel/Endpoint.h **** 				Data.Bytes[3] = UEDATX;
 703:../LUFA_100807//LUFA/Drivers/USB/LowLevel/Endpoint.h **** 				Data.Bytes[2] = UEDATX;
 704:../LUFA_100807//LUFA/Drivers/USB/LowLevel/Endpoint.h **** 				Data.Bytes[1] = UEDATX;
 705:../LUFA_100807//LUFA/Drivers/USB/LowLevel/Endpoint.h **** 				Data.Bytes[0] = UEDATX;
 706:../LUFA_100807//LUFA/Drivers/USB/LowLevel/Endpoint.h **** 			
 707:../LUFA_100807//LUFA/Drivers/USB/LowLevel/Endpoint.h **** 				return Data.DWord;
 708:../LUFA_100807//LUFA/Drivers/USB/LowLevel/Endpoint.h **** 			}
 709:../LUFA_100807//LUFA/Drivers/USB/LowLevel/Endpoint.h **** 
 710:../LUFA_100807//LUFA/Drivers/USB/LowLevel/Endpoint.h **** 			/** Writes four bytes to the currently selected endpoint's bank in little endian format, for IN
 711:../LUFA_100807//LUFA/Drivers/USB/LowLevel/Endpoint.h **** 			 *  direction endpoints.
 712:../LUFA_100807//LUFA/Drivers/USB/LowLevel/Endpoint.h **** 			 *
 713:../LUFA_100807//LUFA/Drivers/USB/LowLevel/Endpoint.h **** 			 *  \ingroup Group_EndpointPrimitiveRW
 714:../LUFA_100807//LUFA/Drivers/USB/LowLevel/Endpoint.h **** 			 *
 715:../LUFA_100807//LUFA/Drivers/USB/LowLevel/Endpoint.h **** 			 *  \param[in] DWord  Next double word to write to the currently selected endpoint's FIFO buffer
 716:../LUFA_100807//LUFA/Drivers/USB/LowLevel/Endpoint.h **** 			 */
 717:../LUFA_100807//LUFA/Drivers/USB/LowLevel/Endpoint.h **** 			static inline void Endpoint_Write_DWord_LE(const uint32_t DWord) ATTR_ALWAYS_INLINE;
 718:../LUFA_100807//LUFA/Drivers/USB/LowLevel/Endpoint.h **** 			static inline void Endpoint_Write_DWord_LE(const uint32_t DWord)
 719:../LUFA_100807//LUFA/Drivers/USB/LowLevel/Endpoint.h **** 			{
 720:../LUFA_100807//LUFA/Drivers/USB/LowLevel/Endpoint.h **** 				UEDATX = (DWord &  0xFF);
 721:../LUFA_100807//LUFA/Drivers/USB/LowLevel/Endpoint.h **** 				UEDATX = (DWord >> 8);
 722:../LUFA_100807//LUFA/Drivers/USB/LowLevel/Endpoint.h **** 				UEDATX = (DWord >> 16);
 723:../LUFA_100807//LUFA/Drivers/USB/LowLevel/Endpoint.h **** 				UEDATX = (DWord >> 24);
 724:../LUFA_100807//LUFA/Drivers/USB/LowLevel/Endpoint.h **** 			}
 725:../LUFA_100807//LUFA/Drivers/USB/LowLevel/Endpoint.h **** 			
 726:../LUFA_100807//LUFA/Drivers/USB/LowLevel/Endpoint.h **** 			/** Writes four bytes to the currently selected endpoint's bank in big endian format, for IN
 727:../LUFA_100807//LUFA/Drivers/USB/LowLevel/Endpoint.h **** 			 *  direction endpoints.
 728:../LUFA_100807//LUFA/Drivers/USB/LowLevel/Endpoint.h **** 			 *
 729:../LUFA_100807//LUFA/Drivers/USB/LowLevel/Endpoint.h **** 			 *  \ingroup Group_EndpointPrimitiveRW
 730:../LUFA_100807//LUFA/Drivers/USB/LowLevel/Endpoint.h **** 			 *
 731:../LUFA_100807//LUFA/Drivers/USB/LowLevel/Endpoint.h **** 			 *  \param[in] DWord  Next double word to write to the currently selected endpoint's FIFO buffer
 732:../LUFA_100807//LUFA/Drivers/USB/LowLevel/Endpoint.h **** 			 */
 733:../LUFA_100807//LUFA/Drivers/USB/LowLevel/Endpoint.h **** 			static inline void Endpoint_Write_DWord_BE(const uint32_t DWord) ATTR_ALWAYS_INLINE;
 734:../LUFA_100807//LUFA/Drivers/USB/LowLevel/Endpoint.h **** 			static inline void Endpoint_Write_DWord_BE(const uint32_t DWord)
 735:../LUFA_100807//LUFA/Drivers/USB/LowLevel/Endpoint.h **** 			{
 736:../LUFA_100807//LUFA/Drivers/USB/LowLevel/Endpoint.h **** 				UEDATX = (DWord >> 24);
 737:../LUFA_100807//LUFA/Drivers/USB/LowLevel/Endpoint.h **** 				UEDATX = (DWord >> 16);
 738:../LUFA_100807//LUFA/Drivers/USB/LowLevel/Endpoint.h **** 				UEDATX = (DWord >> 8);
 739:../LUFA_100807//LUFA/Drivers/USB/LowLevel/Endpoint.h **** 				UEDATX = (DWord &  0xFF);
 740:../LUFA_100807//LUFA/Drivers/USB/LowLevel/Endpoint.h **** 			}
 741:../LUFA_100807//LUFA/Drivers/USB/LowLevel/Endpoint.h **** 
 742:../LUFA_100807//LUFA/Drivers/USB/LowLevel/Endpoint.h **** 			/** Discards four bytes from the currently selected endpoint's bank, for OUT direction endpoints
 743:../LUFA_100807//LUFA/Drivers/USB/LowLevel/Endpoint.h **** 			 *
 744:../LUFA_100807//LUFA/Drivers/USB/LowLevel/Endpoint.h **** 			 *  \ingroup Group_EndpointPrimitiveRW
 745:../LUFA_100807//LUFA/Drivers/USB/LowLevel/Endpoint.h **** 			 */
 746:../LUFA_100807//LUFA/Drivers/USB/LowLevel/Endpoint.h **** 			static inline void Endpoint_Discard_DWord(void) ATTR_ALWAYS_INLINE;
 747:../LUFA_100807//LUFA/Drivers/USB/LowLevel/Endpoint.h **** 			static inline void Endpoint_Discard_DWord(void)
 748:../LUFA_100807//LUFA/Drivers/USB/LowLevel/Endpoint.h **** 			{
 749:../LUFA_100807//LUFA/Drivers/USB/LowLevel/Endpoint.h **** 				uint8_t Dummy;
 750:../LUFA_100807//LUFA/Drivers/USB/LowLevel/Endpoint.h **** 				
 751:../LUFA_100807//LUFA/Drivers/USB/LowLevel/Endpoint.h **** 				Dummy = UEDATX;
 752:../LUFA_100807//LUFA/Drivers/USB/LowLevel/Endpoint.h **** 				Dummy = UEDATX;
 753:../LUFA_100807//LUFA/Drivers/USB/LowLevel/Endpoint.h **** 				Dummy = UEDATX;
 754:../LUFA_100807//LUFA/Drivers/USB/LowLevel/Endpoint.h **** 				Dummy = UEDATX;
 755:../LUFA_100807//LUFA/Drivers/USB/LowLevel/Endpoint.h **** 			}
 756:../LUFA_100807//LUFA/Drivers/USB/LowLevel/Endpoint.h **** 
 757:../LUFA_100807//LUFA/Drivers/USB/LowLevel/Endpoint.h **** 		/* External Variables: */
 758:../LUFA_100807//LUFA/Drivers/USB/LowLevel/Endpoint.h **** 			/** Global indicating the maximum packet size of the default control endpoint located at address
 759:../LUFA_100807//LUFA/Drivers/USB/LowLevel/Endpoint.h **** 			 *  0 in the device. This value is set to the value indicated in the device descriptor in the us
 760:../LUFA_100807//LUFA/Drivers/USB/LowLevel/Endpoint.h **** 			 *  project once the USB interface is initialized into device mode.
 761:../LUFA_100807//LUFA/Drivers/USB/LowLevel/Endpoint.h **** 			 *
 762:../LUFA_100807//LUFA/Drivers/USB/LowLevel/Endpoint.h **** 			 *  If space is an issue, it is possible to fix this to a static value by defining the control
 763:../LUFA_100807//LUFA/Drivers/USB/LowLevel/Endpoint.h **** 			 *  endpoint size in the FIXED_CONTROL_ENDPOINT_SIZE token passed to the compiler in the makefil
 764:../LUFA_100807//LUFA/Drivers/USB/LowLevel/Endpoint.h **** 			 *  via the -D switch. When a fixed control endpoint size is used, the size is no longer dynamic
 765:../LUFA_100807//LUFA/Drivers/USB/LowLevel/Endpoint.h **** 			 *  read from the descriptors at runtime and instead fixed to the given value. When used, it is
 766:../LUFA_100807//LUFA/Drivers/USB/LowLevel/Endpoint.h **** 			 *  important that the descriptor control endpoint size value matches the size given as the
 767:../LUFA_100807//LUFA/Drivers/USB/LowLevel/Endpoint.h **** 			 *  FIXED_CONTROL_ENDPOINT_SIZE token - it is recommended that the FIXED_CONTROL_ENDPOINT_SIZE t
 768:../LUFA_100807//LUFA/Drivers/USB/LowLevel/Endpoint.h **** 			 *  be used in the descriptors to ensure this.
 769:../LUFA_100807//LUFA/Drivers/USB/LowLevel/Endpoint.h **** 			 *
 770:../LUFA_100807//LUFA/Drivers/USB/LowLevel/Endpoint.h **** 			 *  \note This variable should be treated as read-only in the user application, and never manual
 771:../LUFA_100807//LUFA/Drivers/USB/LowLevel/Endpoint.h **** 			 *        changed in value.
 772:../LUFA_100807//LUFA/Drivers/USB/LowLevel/Endpoint.h **** 			 */
 773:../LUFA_100807//LUFA/Drivers/USB/LowLevel/Endpoint.h **** 			#if (!defined(FIXED_CONTROL_ENDPOINT_SIZE) || defined(__DOXYGEN__))
 774:../LUFA_100807//LUFA/Drivers/USB/LowLevel/Endpoint.h **** 				extern uint8_t USB_ControlEndpointSize;
 775:../LUFA_100807//LUFA/Drivers/USB/LowLevel/Endpoint.h **** 			#else
 776:../LUFA_100807//LUFA/Drivers/USB/LowLevel/Endpoint.h **** 				#define USB_ControlEndpointSize FIXED_CONTROL_ENDPOINT_SIZE
 777:../LUFA_100807//LUFA/Drivers/USB/LowLevel/Endpoint.h **** 			#endif
 778:../LUFA_100807//LUFA/Drivers/USB/LowLevel/Endpoint.h **** 
 779:../LUFA_100807//LUFA/Drivers/USB/LowLevel/Endpoint.h **** 		/* Function Prototypes: */
 780:../LUFA_100807//LUFA/Drivers/USB/LowLevel/Endpoint.h **** 			#if !defined(NO_STREAM_CALLBACKS) || defined(__DOXYGEN__)
 781:../LUFA_100807//LUFA/Drivers/USB/LowLevel/Endpoint.h **** 				#define __CALLBACK_PARAM     , StreamCallbackPtr_t Callback
 782:../LUFA_100807//LUFA/Drivers/USB/LowLevel/Endpoint.h **** 			#else
 783:../LUFA_100807//LUFA/Drivers/USB/LowLevel/Endpoint.h **** 				#define __CALLBACK_PARAM
 784:../LUFA_100807//LUFA/Drivers/USB/LowLevel/Endpoint.h **** 			#endif
 785:../LUFA_100807//LUFA/Drivers/USB/LowLevel/Endpoint.h **** 		
 786:../LUFA_100807//LUFA/Drivers/USB/LowLevel/Endpoint.h **** 			/** Configures the specified endpoint number with the given endpoint type, direction, bank size
 787:../LUFA_100807//LUFA/Drivers/USB/LowLevel/Endpoint.h **** 			 *  and banking mode. Endpoints should be allocated in ascending order by their address in the
 788:../LUFA_100807//LUFA/Drivers/USB/LowLevel/Endpoint.h **** 			 *  device (i.e. endpoint 1 should be configured before endpoint 2 and so on) to prevent fragmen
 789:../LUFA_100807//LUFA/Drivers/USB/LowLevel/Endpoint.h **** 			 *  of the USB FIFO memory.
 790:../LUFA_100807//LUFA/Drivers/USB/LowLevel/Endpoint.h **** 			 *
 791:../LUFA_100807//LUFA/Drivers/USB/LowLevel/Endpoint.h **** 			 *  The endpoint type may be one of the EP_TYPE_* macros listed in LowLevel.h and the direction
 792:../LUFA_100807//LUFA/Drivers/USB/LowLevel/Endpoint.h **** 			 *  may be either \ref ENDPOINT_DIR_OUT or \ref ENDPOINT_DIR_IN.
 793:../LUFA_100807//LUFA/Drivers/USB/LowLevel/Endpoint.h **** 			 *
 794:../LUFA_100807//LUFA/Drivers/USB/LowLevel/Endpoint.h **** 			 *  The bank size must indicate the maximum packet size that the endpoint can handle. Different
 795:../LUFA_100807//LUFA/Drivers/USB/LowLevel/Endpoint.h **** 			 *  endpoint numbers can handle different maximum packet sizes - refer to the chosen USB AVR's
 796:../LUFA_100807//LUFA/Drivers/USB/LowLevel/Endpoint.h **** 			 *  datasheet to determine the maximum bank size for each endpoint.
 797:../LUFA_100807//LUFA/Drivers/USB/LowLevel/Endpoint.h **** 			 *
 798:../LUFA_100807//LUFA/Drivers/USB/LowLevel/Endpoint.h **** 			 *  The banking mode may be either \ref ENDPOINT_BANK_SINGLE or \ref ENDPOINT_BANK_DOUBLE.
 799:../LUFA_100807//LUFA/Drivers/USB/LowLevel/Endpoint.h **** 			 *
 800:../LUFA_100807//LUFA/Drivers/USB/LowLevel/Endpoint.h **** 			 *  \note The default control endpoint should not be manually configured by the user application
 801:../LUFA_100807//LUFA/Drivers/USB/LowLevel/Endpoint.h **** 			 *        it is automatically configured by the library internally.
 802:../LUFA_100807//LUFA/Drivers/USB/LowLevel/Endpoint.h **** 			 *        \n\n
 803:../LUFA_100807//LUFA/Drivers/USB/LowLevel/Endpoint.h **** 			 *
 804:../LUFA_100807//LUFA/Drivers/USB/LowLevel/Endpoint.h **** 			 *  \note This routine will select the specified endpoint, and the endpoint will remain selected
 805:../LUFA_100807//LUFA/Drivers/USB/LowLevel/Endpoint.h **** 			 *        once the routine completes regardless of if the endpoint configuration succeeds.
 806:../LUFA_100807//LUFA/Drivers/USB/LowLevel/Endpoint.h **** 			 *
 807:../LUFA_100807//LUFA/Drivers/USB/LowLevel/Endpoint.h **** 			 *  \return Boolean true if the configuration succeeded, false otherwise.
 808:../LUFA_100807//LUFA/Drivers/USB/LowLevel/Endpoint.h **** 			 */
 809:../LUFA_100807//LUFA/Drivers/USB/LowLevel/Endpoint.h **** 			bool Endpoint_ConfigureEndpoint(const uint8_t  Number,
 810:../LUFA_100807//LUFA/Drivers/USB/LowLevel/Endpoint.h **** 			                                const uint8_t Type,
 811:../LUFA_100807//LUFA/Drivers/USB/LowLevel/Endpoint.h **** 			                                const uint8_t Direction,
 812:../LUFA_100807//LUFA/Drivers/USB/LowLevel/Endpoint.h **** 			                                const uint16_t Size,
 813:../LUFA_100807//LUFA/Drivers/USB/LowLevel/Endpoint.h **** 			                                const uint8_t Banks);
 814:../LUFA_100807//LUFA/Drivers/USB/LowLevel/Endpoint.h **** 
 815:../LUFA_100807//LUFA/Drivers/USB/LowLevel/Endpoint.h **** 			/** Spin-loops until the currently selected non-control endpoint is ready for the next packet of
 816:../LUFA_100807//LUFA/Drivers/USB/LowLevel/Endpoint.h **** 			 *  to be read or written to it.
 817:../LUFA_100807//LUFA/Drivers/USB/LowLevel/Endpoint.h **** 			 *
 818:../LUFA_100807//LUFA/Drivers/USB/LowLevel/Endpoint.h **** 			 *  \note This routine should not be called on CONTROL type endpoints.
 819:../LUFA_100807//LUFA/Drivers/USB/LowLevel/Endpoint.h **** 			 *
 820:../LUFA_100807//LUFA/Drivers/USB/LowLevel/Endpoint.h **** 			 *  \ingroup Group_EndpointRW
 821:../LUFA_100807//LUFA/Drivers/USB/LowLevel/Endpoint.h **** 			 *
 822:../LUFA_100807//LUFA/Drivers/USB/LowLevel/Endpoint.h **** 			 *  \return A value from the \ref Endpoint_WaitUntilReady_ErrorCodes_t enum.
 823:../LUFA_100807//LUFA/Drivers/USB/LowLevel/Endpoint.h **** 			 */
 824:../LUFA_100807//LUFA/Drivers/USB/LowLevel/Endpoint.h **** 			uint8_t Endpoint_WaitUntilReady(void);
 825:../LUFA_100807//LUFA/Drivers/USB/LowLevel/Endpoint.h **** 			
 826:../LUFA_100807//LUFA/Drivers/USB/LowLevel/Endpoint.h **** 			/** Completes the status stage of a control transfer on a CONTROL type endpoint automatically,
 827:../LUFA_100807//LUFA/Drivers/USB/LowLevel/Endpoint.h **** 			 *  with respect to the data direction. This is a convenience function which can be used to
 828:../LUFA_100807//LUFA/Drivers/USB/LowLevel/Endpoint.h **** 			 *  simplify user control request handling.
 829:../LUFA_100807//LUFA/Drivers/USB/LowLevel/Endpoint.h **** 			 */
 830:../LUFA_100807//LUFA/Drivers/USB/LowLevel/Endpoint.h **** 			void Endpoint_ClearStatusStage(void);
 831:../LUFA_100807//LUFA/Drivers/USB/LowLevel/Endpoint.h **** 
 832:../LUFA_100807//LUFA/Drivers/USB/LowLevel/Endpoint.h **** 			/** Reads and discards the given number of bytes from the endpoint from the given buffer,
 833:../LUFA_100807//LUFA/Drivers/USB/LowLevel/Endpoint.h **** 			 *  discarding fully read packets from the host as needed. The last packet is not automatically
 834:../LUFA_100807//LUFA/Drivers/USB/LowLevel/Endpoint.h **** 			 *  discarded once the remaining bytes has been read; the user is responsible for manually
 835:../LUFA_100807//LUFA/Drivers/USB/LowLevel/Endpoint.h **** 			 *  discarding the last packet from the host via the \ref Endpoint_ClearOUT() macro. Between
 836:../LUFA_100807//LUFA/Drivers/USB/LowLevel/Endpoint.h **** 			 *  each USB packet, the given stream callback function is executed repeatedly until the next
 837:../LUFA_100807//LUFA/Drivers/USB/LowLevel/Endpoint.h **** 			 *  packet is ready, allowing for early aborts of stream transfers.
 838:../LUFA_100807//LUFA/Drivers/USB/LowLevel/Endpoint.h **** 			 *
 839:../LUFA_100807//LUFA/Drivers/USB/LowLevel/Endpoint.h **** 			 *	The callback routine should be created according to the information in \ref Group_StreamCallb
 840:../LUFA_100807//LUFA/Drivers/USB/LowLevel/Endpoint.h **** 			 *  If the token NO_STREAM_CALLBACKS is passed via the -D option to the compiler, stream callbac
 841:../LUFA_100807//LUFA/Drivers/USB/LowLevel/Endpoint.h **** 			 *  disabled and this function has the Callback parameter omitted.
 842:../LUFA_100807//LUFA/Drivers/USB/LowLevel/Endpoint.h **** 			 *
 843:../LUFA_100807//LUFA/Drivers/USB/LowLevel/Endpoint.h **** 			 *  \note This routine should not be used on CONTROL type endpoints.
 844:../LUFA_100807//LUFA/Drivers/USB/LowLevel/Endpoint.h **** 			 *
 845:../LUFA_100807//LUFA/Drivers/USB/LowLevel/Endpoint.h **** 			 *  \ingroup Group_EndpointStreamRW
 846:../LUFA_100807//LUFA/Drivers/USB/LowLevel/Endpoint.h **** 			 *
 847:../LUFA_100807//LUFA/Drivers/USB/LowLevel/Endpoint.h **** 			 *  \param[in] Length    Number of bytes to send via the currently selected endpoint.
 848:../LUFA_100807//LUFA/Drivers/USB/LowLevel/Endpoint.h **** 			 *  \param[in] Callback  Name of a callback routine to call between successive USB packet transf
 849:../LUFA_100807//LUFA/Drivers/USB/LowLevel/Endpoint.h **** 			 *
 850:../LUFA_100807//LUFA/Drivers/USB/LowLevel/Endpoint.h **** 			 *  \return A value from the \ref Endpoint_Stream_RW_ErrorCodes_t enum.
 851:../LUFA_100807//LUFA/Drivers/USB/LowLevel/Endpoint.h **** 			 */
 852:../LUFA_100807//LUFA/Drivers/USB/LowLevel/Endpoint.h **** 			uint8_t Endpoint_Discard_Stream(uint16_t Length
 853:../LUFA_100807//LUFA/Drivers/USB/LowLevel/Endpoint.h **** 			                                __CALLBACK_PARAM);
 854:../LUFA_100807//LUFA/Drivers/USB/LowLevel/Endpoint.h **** 
 855:../LUFA_100807//LUFA/Drivers/USB/LowLevel/Endpoint.h **** 			/** Writes the given number of bytes to the endpoint from the given buffer in little endian,
 856:../LUFA_100807//LUFA/Drivers/USB/LowLevel/Endpoint.h **** 			 *  sending full packets to the host as needed. The last packet filled is not automatically sent
 857:../LUFA_100807//LUFA/Drivers/USB/LowLevel/Endpoint.h **** 			 *  the user is responsible for manually sending the last written packet to the host via the
 858:../LUFA_100807//LUFA/Drivers/USB/LowLevel/Endpoint.h **** 			 *  \ref Endpoint_ClearIN() macro. Between each USB packet, the given stream callback function
 859:../LUFA_100807//LUFA/Drivers/USB/LowLevel/Endpoint.h **** 			 *  is executed repeatedly until the endpoint is ready to accept the next packet, allowing for e
 860:../LUFA_100807//LUFA/Drivers/USB/LowLevel/Endpoint.h **** 			 *  aborts of stream transfers.
 861:../LUFA_100807//LUFA/Drivers/USB/LowLevel/Endpoint.h **** 			 *
 862:../LUFA_100807//LUFA/Drivers/USB/LowLevel/Endpoint.h **** 			 *	The callback routine should be created according to the information in \ref Group_StreamCallb
 863:../LUFA_100807//LUFA/Drivers/USB/LowLevel/Endpoint.h **** 			 *  If the token NO_STREAM_CALLBACKS is passed via the -D option to the compiler, stream callbac
 864:../LUFA_100807//LUFA/Drivers/USB/LowLevel/Endpoint.h **** 			 *  disabled and this function has the Callback parameter omitted.
 865:../LUFA_100807//LUFA/Drivers/USB/LowLevel/Endpoint.h **** 			 *
 866:../LUFA_100807//LUFA/Drivers/USB/LowLevel/Endpoint.h **** 			 *  \note This routine should not be used on CONTROL type endpoints.
 867:../LUFA_100807//LUFA/Drivers/USB/LowLevel/Endpoint.h **** 			 *
 868:../LUFA_100807//LUFA/Drivers/USB/LowLevel/Endpoint.h **** 			 *  \ingroup Group_EndpointStreamRW
 869:../LUFA_100807//LUFA/Drivers/USB/LowLevel/Endpoint.h **** 			 *
 870:../LUFA_100807//LUFA/Drivers/USB/LowLevel/Endpoint.h **** 			 *  \param[in] Buffer    Pointer to the source data buffer to read from.
 871:../LUFA_100807//LUFA/Drivers/USB/LowLevel/Endpoint.h **** 			 *  \param[in] Length    Number of bytes to read for the currently selected endpoint into the bu
 872:../LUFA_100807//LUFA/Drivers/USB/LowLevel/Endpoint.h **** 			 *  \param[in] Callback  Name of a callback routine to call between successive USB packet transf
 873:../LUFA_100807//LUFA/Drivers/USB/LowLevel/Endpoint.h **** 			 *
 874:../LUFA_100807//LUFA/Drivers/USB/LowLevel/Endpoint.h **** 			 *  \return A value from the \ref Endpoint_Stream_RW_ErrorCodes_t enum.
 875:../LUFA_100807//LUFA/Drivers/USB/LowLevel/Endpoint.h **** 			 */
 876:../LUFA_100807//LUFA/Drivers/USB/LowLevel/Endpoint.h **** 			uint8_t Endpoint_Write_Stream_LE(const void* Buffer,
 877:../LUFA_100807//LUFA/Drivers/USB/LowLevel/Endpoint.h **** 			                                 uint16_t Length
 878:../LUFA_100807//LUFA/Drivers/USB/LowLevel/Endpoint.h **** 			                                 __CALLBACK_PARAM) ATTR_NON_NULL_PTR_ARG(1);
 879:../LUFA_100807//LUFA/Drivers/USB/LowLevel/Endpoint.h **** 
 880:../LUFA_100807//LUFA/Drivers/USB/LowLevel/Endpoint.h **** 			/** EEPROM buffer source version of \ref Endpoint_Write_Stream_LE().
 881:../LUFA_100807//LUFA/Drivers/USB/LowLevel/Endpoint.h **** 			 *
 882:../LUFA_100807//LUFA/Drivers/USB/LowLevel/Endpoint.h **** 			 *  \ingroup Group_EndpointStreamRW
 883:../LUFA_100807//LUFA/Drivers/USB/LowLevel/Endpoint.h **** 			 *
 884:../LUFA_100807//LUFA/Drivers/USB/LowLevel/Endpoint.h **** 			 *  \param[in] Buffer    Pointer to the source data buffer to read from.
 885:../LUFA_100807//LUFA/Drivers/USB/LowLevel/Endpoint.h **** 			 *  \param[in] Length    Number of bytes to read for the currently selected endpoint into the bu
 886:../LUFA_100807//LUFA/Drivers/USB/LowLevel/Endpoint.h **** 			 *  \param[in] Callback  Name of a callback routine to call between successive USB packet transf
 887:../LUFA_100807//LUFA/Drivers/USB/LowLevel/Endpoint.h **** 			 *
 888:../LUFA_100807//LUFA/Drivers/USB/LowLevel/Endpoint.h **** 			 *  \return A value from the \ref Endpoint_Stream_RW_ErrorCodes_t enum.
 889:../LUFA_100807//LUFA/Drivers/USB/LowLevel/Endpoint.h **** 			 */
 890:../LUFA_100807//LUFA/Drivers/USB/LowLevel/Endpoint.h **** 			uint8_t Endpoint_Write_EStream_LE(const void* Buffer,
 891:../LUFA_100807//LUFA/Drivers/USB/LowLevel/Endpoint.h **** 			                                  uint16_t Length
 892:../LUFA_100807//LUFA/Drivers/USB/LowLevel/Endpoint.h **** 			                                  __CALLBACK_PARAM) ATTR_NON_NULL_PTR_ARG(1);
 893:../LUFA_100807//LUFA/Drivers/USB/LowLevel/Endpoint.h **** 
 894:../LUFA_100807//LUFA/Drivers/USB/LowLevel/Endpoint.h **** 			/** FLASH buffer source version of \ref Endpoint_Write_Stream_LE().
 895:../LUFA_100807//LUFA/Drivers/USB/LowLevel/Endpoint.h **** 			 *
 896:../LUFA_100807//LUFA/Drivers/USB/LowLevel/Endpoint.h **** 			 *  \pre The FLASH data must be located in the first 64KB of FLASH for this function to work cor
 897:../LUFA_100807//LUFA/Drivers/USB/LowLevel/Endpoint.h **** 			 *
 898:../LUFA_100807//LUFA/Drivers/USB/LowLevel/Endpoint.h **** 			 *  \ingroup Group_EndpointStreamRW
 899:../LUFA_100807//LUFA/Drivers/USB/LowLevel/Endpoint.h **** 			 *
 900:../LUFA_100807//LUFA/Drivers/USB/LowLevel/Endpoint.h **** 			 *  \param[in] Buffer    Pointer to the source data buffer to read from.
 901:../LUFA_100807//LUFA/Drivers/USB/LowLevel/Endpoint.h **** 			 *  \param[in] Length    Number of bytes to read for the currently selected endpoint into the bu
 902:../LUFA_100807//LUFA/Drivers/USB/LowLevel/Endpoint.h **** 			 *  \param[in] Callback  Name of a callback routine to call between successive USB packet transf
 903:../LUFA_100807//LUFA/Drivers/USB/LowLevel/Endpoint.h **** 			 *
 904:../LUFA_100807//LUFA/Drivers/USB/LowLevel/Endpoint.h **** 			 *  \return A value from the \ref Endpoint_Stream_RW_ErrorCodes_t enum.
 905:../LUFA_100807//LUFA/Drivers/USB/LowLevel/Endpoint.h **** 			 */
 906:../LUFA_100807//LUFA/Drivers/USB/LowLevel/Endpoint.h **** 			uint8_t Endpoint_Write_PStream_LE(const void* Buffer,
 907:../LUFA_100807//LUFA/Drivers/USB/LowLevel/Endpoint.h **** 			                                  uint16_t Length
 908:../LUFA_100807//LUFA/Drivers/USB/LowLevel/Endpoint.h **** 			                                  __CALLBACK_PARAM) ATTR_NON_NULL_PTR_ARG(1);
 909:../LUFA_100807//LUFA/Drivers/USB/LowLevel/Endpoint.h **** 
 910:../LUFA_100807//LUFA/Drivers/USB/LowLevel/Endpoint.h **** 			/** Writes the given number of bytes to the endpoint from the given buffer in big endian,
 911:../LUFA_100807//LUFA/Drivers/USB/LowLevel/Endpoint.h **** 			 *  sending full packets to the host as needed. The last packet filled is not automatically sent
 912:../LUFA_100807//LUFA/Drivers/USB/LowLevel/Endpoint.h **** 			 *  the user is responsible for manually sending the last written packet to the host via the
 913:../LUFA_100807//LUFA/Drivers/USB/LowLevel/Endpoint.h **** 			 *  \ref Endpoint_ClearIN() macro. Between each USB packet, the given stream callback function
 914:../LUFA_100807//LUFA/Drivers/USB/LowLevel/Endpoint.h **** 			 *  is executed repeatedly until the endpoint is ready to accept the next packet, allowing for e
 915:../LUFA_100807//LUFA/Drivers/USB/LowLevel/Endpoint.h **** 			 *  aborts of stream transfers.
 916:../LUFA_100807//LUFA/Drivers/USB/LowLevel/Endpoint.h **** 			 *
 917:../LUFA_100807//LUFA/Drivers/USB/LowLevel/Endpoint.h **** 			 *	The callback routine should be created according to the information in \ref Group_StreamCallb
 918:../LUFA_100807//LUFA/Drivers/USB/LowLevel/Endpoint.h **** 			 *  If the token NO_STREAM_CALLBACKS is passed via the -D option to the compiler, stream callbac
 919:../LUFA_100807//LUFA/Drivers/USB/LowLevel/Endpoint.h **** 			 *  disabled and this function has the Callback parameter omitted.
 920:../LUFA_100807//LUFA/Drivers/USB/LowLevel/Endpoint.h **** 			 *
 921:../LUFA_100807//LUFA/Drivers/USB/LowLevel/Endpoint.h **** 			 *  \note This routine should not be used on CONTROL type endpoints.
 922:../LUFA_100807//LUFA/Drivers/USB/LowLevel/Endpoint.h **** 			 *
 923:../LUFA_100807//LUFA/Drivers/USB/LowLevel/Endpoint.h **** 			 *  \ingroup Group_EndpointStreamRW
 924:../LUFA_100807//LUFA/Drivers/USB/LowLevel/Endpoint.h **** 			 *
 925:../LUFA_100807//LUFA/Drivers/USB/LowLevel/Endpoint.h **** 			 *  \param[in] Buffer    Pointer to the source data buffer to read from.
 926:../LUFA_100807//LUFA/Drivers/USB/LowLevel/Endpoint.h **** 			 *  \param[in] Length    Number of bytes to read for the currently selected endpoint into the bu
 927:../LUFA_100807//LUFA/Drivers/USB/LowLevel/Endpoint.h **** 			 *  \param[in] Callback  Name of a callback routine to call between successive USB packet transf
 928:../LUFA_100807//LUFA/Drivers/USB/LowLevel/Endpoint.h **** 			 *
 929:../LUFA_100807//LUFA/Drivers/USB/LowLevel/Endpoint.h **** 			 *  \return A value from the \ref Endpoint_Stream_RW_ErrorCodes_t enum.
 930:../LUFA_100807//LUFA/Drivers/USB/LowLevel/Endpoint.h **** 			 */
 931:../LUFA_100807//LUFA/Drivers/USB/LowLevel/Endpoint.h **** 			uint8_t Endpoint_Write_Stream_BE(const void* Buffer,
 932:../LUFA_100807//LUFA/Drivers/USB/LowLevel/Endpoint.h **** 			                                 uint16_t Length
 933:../LUFA_100807//LUFA/Drivers/USB/LowLevel/Endpoint.h **** 			                                 __CALLBACK_PARAM) ATTR_NON_NULL_PTR_ARG(1);
 934:../LUFA_100807//LUFA/Drivers/USB/LowLevel/Endpoint.h **** 
 935:../LUFA_100807//LUFA/Drivers/USB/LowLevel/Endpoint.h **** 			/** EEPROM buffer source version of \ref Endpoint_Write_Stream_BE().
 936:../LUFA_100807//LUFA/Drivers/USB/LowLevel/Endpoint.h **** 			 *
 937:../LUFA_100807//LUFA/Drivers/USB/LowLevel/Endpoint.h **** 			 *  \ingroup Group_EndpointStreamRW
 938:../LUFA_100807//LUFA/Drivers/USB/LowLevel/Endpoint.h **** 			 *
 939:../LUFA_100807//LUFA/Drivers/USB/LowLevel/Endpoint.h **** 			 *  \param[in] Buffer    Pointer to the source data buffer to read from.
 940:../LUFA_100807//LUFA/Drivers/USB/LowLevel/Endpoint.h **** 			 *  \param[in] Length    Number of bytes to read for the currently selected endpoint into the bu
 941:../LUFA_100807//LUFA/Drivers/USB/LowLevel/Endpoint.h **** 			 *  \param[in] Callback  Name of a callback routine to call between successive USB packet transf
 942:../LUFA_100807//LUFA/Drivers/USB/LowLevel/Endpoint.h **** 			 *
 943:../LUFA_100807//LUFA/Drivers/USB/LowLevel/Endpoint.h **** 			 *  \return A value from the \ref Endpoint_Stream_RW_ErrorCodes_t enum.
 944:../LUFA_100807//LUFA/Drivers/USB/LowLevel/Endpoint.h **** 			 */
 945:../LUFA_100807//LUFA/Drivers/USB/LowLevel/Endpoint.h **** 			uint8_t Endpoint_Write_EStream_BE(const void* Buffer,
 946:../LUFA_100807//LUFA/Drivers/USB/LowLevel/Endpoint.h **** 			                                  uint16_t Length
 947:../LUFA_100807//LUFA/Drivers/USB/LowLevel/Endpoint.h **** 			                                  __CALLBACK_PARAM) ATTR_NON_NULL_PTR_ARG(1);
 948:../LUFA_100807//LUFA/Drivers/USB/LowLevel/Endpoint.h **** 
 949:../LUFA_100807//LUFA/Drivers/USB/LowLevel/Endpoint.h **** 			/** FLASH buffer source version of \ref Endpoint_Write_Stream_BE().
 950:../LUFA_100807//LUFA/Drivers/USB/LowLevel/Endpoint.h **** 			 *
 951:../LUFA_100807//LUFA/Drivers/USB/LowLevel/Endpoint.h **** 			 *  \pre The FLASH data must be located in the first 64KB of FLASH for this function to work cor
 952:../LUFA_100807//LUFA/Drivers/USB/LowLevel/Endpoint.h **** 			 *
 953:../LUFA_100807//LUFA/Drivers/USB/LowLevel/Endpoint.h **** 			 *  \ingroup Group_EndpointStreamRW
 954:../LUFA_100807//LUFA/Drivers/USB/LowLevel/Endpoint.h **** 			 *
 955:../LUFA_100807//LUFA/Drivers/USB/LowLevel/Endpoint.h **** 			 *  \param[in] Buffer    Pointer to the source data buffer to read from.
 956:../LUFA_100807//LUFA/Drivers/USB/LowLevel/Endpoint.h **** 			 *  \param[in] Length    Number of bytes to read for the currently selected endpoint into the bu
 957:../LUFA_100807//LUFA/Drivers/USB/LowLevel/Endpoint.h **** 			 *  \param[in] Callback  Name of a callback routine to call between successive USB packet transf
 958:../LUFA_100807//LUFA/Drivers/USB/LowLevel/Endpoint.h **** 			 *
 959:../LUFA_100807//LUFA/Drivers/USB/LowLevel/Endpoint.h **** 			 *  \return A value from the \ref Endpoint_Stream_RW_ErrorCodes_t enum.
 960:../LUFA_100807//LUFA/Drivers/USB/LowLevel/Endpoint.h **** 			 */
 961:../LUFA_100807//LUFA/Drivers/USB/LowLevel/Endpoint.h **** 			uint8_t Endpoint_Write_PStream_BE(const void* Buffer,
 962:../LUFA_100807//LUFA/Drivers/USB/LowLevel/Endpoint.h **** 			                                  uint16_t Length
 963:../LUFA_100807//LUFA/Drivers/USB/LowLevel/Endpoint.h **** 			                                  __CALLBACK_PARAM) ATTR_NON_NULL_PTR_ARG(1);
 964:../LUFA_100807//LUFA/Drivers/USB/LowLevel/Endpoint.h **** 
 965:../LUFA_100807//LUFA/Drivers/USB/LowLevel/Endpoint.h **** 			/** Reads the given number of bytes from the endpoint from the given buffer in little endian,
 966:../LUFA_100807//LUFA/Drivers/USB/LowLevel/Endpoint.h **** 			 *  discarding fully read packets from the host as needed. The last packet is not automatically
 967:../LUFA_100807//LUFA/Drivers/USB/LowLevel/Endpoint.h **** 			 *  discarded once the remaining bytes has been read; the user is responsible for manually
 968:../LUFA_100807//LUFA/Drivers/USB/LowLevel/Endpoint.h **** 			 *  discarding the last packet from the host via the \ref Endpoint_ClearOUT() macro. Between
 969:../LUFA_100807//LUFA/Drivers/USB/LowLevel/Endpoint.h **** 			 *  each USB packet, the given stream callback function is executed repeatedly until the endpoin
 970:../LUFA_100807//LUFA/Drivers/USB/LowLevel/Endpoint.h **** 			 *  is ready to accept the next packet, allowing for early aborts of stream transfers.
 971:../LUFA_100807//LUFA/Drivers/USB/LowLevel/Endpoint.h **** 			 *
 972:../LUFA_100807//LUFA/Drivers/USB/LowLevel/Endpoint.h **** 			 *	The callback routine should be created according to the information in \ref Group_StreamCallb
 973:../LUFA_100807//LUFA/Drivers/USB/LowLevel/Endpoint.h **** 			 *  If the token NO_STREAM_CALLBACKS is passed via the -D option to the compiler, stream callbac
 974:../LUFA_100807//LUFA/Drivers/USB/LowLevel/Endpoint.h **** 			 *  disabled and this function has the Callback parameter omitted.
 975:../LUFA_100807//LUFA/Drivers/USB/LowLevel/Endpoint.h **** 			 *
 976:../LUFA_100807//LUFA/Drivers/USB/LowLevel/Endpoint.h **** 			 *  \note This routine should not be used on CONTROL type endpoints.
 977:../LUFA_100807//LUFA/Drivers/USB/LowLevel/Endpoint.h **** 			 *
 978:../LUFA_100807//LUFA/Drivers/USB/LowLevel/Endpoint.h **** 			 *  \ingroup Group_EndpointStreamRW
 979:../LUFA_100807//LUFA/Drivers/USB/LowLevel/Endpoint.h **** 			 *
 980:../LUFA_100807//LUFA/Drivers/USB/LowLevel/Endpoint.h **** 			 *  \param[out] Buffer    Pointer to the destination data buffer to write to.
 981:../LUFA_100807//LUFA/Drivers/USB/LowLevel/Endpoint.h **** 			 *  \param[in]  Length    Number of bytes to send via the currently selected endpoint.
 982:../LUFA_100807//LUFA/Drivers/USB/LowLevel/Endpoint.h **** 			 *  \param[in]  Callback  Name of a callback routine to call between successive USB packet trans
 983:../LUFA_100807//LUFA/Drivers/USB/LowLevel/Endpoint.h **** 			 *
 984:../LUFA_100807//LUFA/Drivers/USB/LowLevel/Endpoint.h **** 			 *  \return A value from the \ref Endpoint_Stream_RW_ErrorCodes_t enum.
 985:../LUFA_100807//LUFA/Drivers/USB/LowLevel/Endpoint.h **** 			 */
 986:../LUFA_100807//LUFA/Drivers/USB/LowLevel/Endpoint.h **** 			uint8_t Endpoint_Read_Stream_LE(void* Buffer,
 987:../LUFA_100807//LUFA/Drivers/USB/LowLevel/Endpoint.h **** 			                                uint16_t Length
 988:../LUFA_100807//LUFA/Drivers/USB/LowLevel/Endpoint.h **** 			                                __CALLBACK_PARAM) ATTR_NON_NULL_PTR_ARG(1);
 989:../LUFA_100807//LUFA/Drivers/USB/LowLevel/Endpoint.h **** 
 990:../LUFA_100807//LUFA/Drivers/USB/LowLevel/Endpoint.h **** 			/** EEPROM buffer source version of \ref Endpoint_Read_Stream_LE().
 991:../LUFA_100807//LUFA/Drivers/USB/LowLevel/Endpoint.h **** 			 *
 992:../LUFA_100807//LUFA/Drivers/USB/LowLevel/Endpoint.h **** 			 *  \ingroup Group_EndpointStreamRW
 993:../LUFA_100807//LUFA/Drivers/USB/LowLevel/Endpoint.h **** 			 *
 994:../LUFA_100807//LUFA/Drivers/USB/LowLevel/Endpoint.h **** 			 *  \param[out] Buffer    Pointer to the destination data buffer to write to, located in EEPROM 
 995:../LUFA_100807//LUFA/Drivers/USB/LowLevel/Endpoint.h **** 			 *  \param[in]  Length    Number of bytes to send via the currently selected endpoint.
 996:../LUFA_100807//LUFA/Drivers/USB/LowLevel/Endpoint.h **** 			 *  \param[in]  Callback  Name of a callback routine to call between successive USB packet trans
 997:../LUFA_100807//LUFA/Drivers/USB/LowLevel/Endpoint.h **** 			 *
 998:../LUFA_100807//LUFA/Drivers/USB/LowLevel/Endpoint.h **** 			 *  \return A value from the \ref Endpoint_Stream_RW_ErrorCodes_t enum.
 999:../LUFA_100807//LUFA/Drivers/USB/LowLevel/Endpoint.h **** 			 */
1000:../LUFA_100807//LUFA/Drivers/USB/LowLevel/Endpoint.h **** 			uint8_t Endpoint_Read_EStream_LE(void* Buffer,
1001:../LUFA_100807//LUFA/Drivers/USB/LowLevel/Endpoint.h **** 			                                 uint16_t Length
1002:../LUFA_100807//LUFA/Drivers/USB/LowLevel/Endpoint.h **** 			                                 __CALLBACK_PARAM) ATTR_NON_NULL_PTR_ARG(1);
1003:../LUFA_100807//LUFA/Drivers/USB/LowLevel/Endpoint.h **** 			
1004:../LUFA_100807//LUFA/Drivers/USB/LowLevel/Endpoint.h **** 			/** Reads the given number of bytes from the endpoint from the given buffer in big endian,
1005:../LUFA_100807//LUFA/Drivers/USB/LowLevel/Endpoint.h **** 			 *  discarding fully read packets from the host as needed. The last packet is not automatically
1006:../LUFA_100807//LUFA/Drivers/USB/LowLevel/Endpoint.h **** 			 *  discarded once the remaining bytes has been read; the user is responsible for manually
1007:../LUFA_100807//LUFA/Drivers/USB/LowLevel/Endpoint.h **** 			 *  discarding the last packet from the host via the \ref Endpoint_ClearOUT() macro. Between
1008:../LUFA_100807//LUFA/Drivers/USB/LowLevel/Endpoint.h **** 			 *  each USB packet, the given stream callback function is executed repeatedly until the endpoin
1009:../LUFA_100807//LUFA/Drivers/USB/LowLevel/Endpoint.h **** 			 *  is ready to accept the next packet, allowing for early aborts of stream transfers.
1010:../LUFA_100807//LUFA/Drivers/USB/LowLevel/Endpoint.h **** 			 *
1011:../LUFA_100807//LUFA/Drivers/USB/LowLevel/Endpoint.h **** 			 *	The callback routine should be created according to the information in \ref Group_StreamCallb
1012:../LUFA_100807//LUFA/Drivers/USB/LowLevel/Endpoint.h **** 			 *  If the token NO_STREAM_CALLBACKS is passed via the -D option to the compiler, stream callbac
1013:../LUFA_100807//LUFA/Drivers/USB/LowLevel/Endpoint.h **** 			 *  disabled and this function has the Callback parameter omitted.
1014:../LUFA_100807//LUFA/Drivers/USB/LowLevel/Endpoint.h **** 			 *
1015:../LUFA_100807//LUFA/Drivers/USB/LowLevel/Endpoint.h **** 			 *  \note This routine should not be used on CONTROL type endpoints.
1016:../LUFA_100807//LUFA/Drivers/USB/LowLevel/Endpoint.h **** 			 *
1017:../LUFA_100807//LUFA/Drivers/USB/LowLevel/Endpoint.h **** 			 *  \ingroup Group_EndpointStreamRW
1018:../LUFA_100807//LUFA/Drivers/USB/LowLevel/Endpoint.h **** 			 *
1019:../LUFA_100807//LUFA/Drivers/USB/LowLevel/Endpoint.h **** 			 *  \param[out] Buffer    Pointer to the destination data buffer to write to.
1020:../LUFA_100807//LUFA/Drivers/USB/LowLevel/Endpoint.h **** 			 *  \param[in]  Length    Number of bytes to send via the currently selected endpoint.
1021:../LUFA_100807//LUFA/Drivers/USB/LowLevel/Endpoint.h **** 			 *  \param[in]  Callback  Name of a callback routine to call between successive USB packet trans
1022:../LUFA_100807//LUFA/Drivers/USB/LowLevel/Endpoint.h **** 			 *
1023:../LUFA_100807//LUFA/Drivers/USB/LowLevel/Endpoint.h **** 			 *  \return A value from the \ref Endpoint_Stream_RW_ErrorCodes_t enum.
1024:../LUFA_100807//LUFA/Drivers/USB/LowLevel/Endpoint.h **** 			 */
1025:../LUFA_100807//LUFA/Drivers/USB/LowLevel/Endpoint.h **** 			uint8_t Endpoint_Read_Stream_BE(void* Buffer,
1026:../LUFA_100807//LUFA/Drivers/USB/LowLevel/Endpoint.h **** 			                                uint16_t Length
1027:../LUFA_100807//LUFA/Drivers/USB/LowLevel/Endpoint.h **** 			                                __CALLBACK_PARAM) ATTR_NON_NULL_PTR_ARG(1);
1028:../LUFA_100807//LUFA/Drivers/USB/LowLevel/Endpoint.h **** 
1029:../LUFA_100807//LUFA/Drivers/USB/LowLevel/Endpoint.h **** 			/** EEPROM buffer source version of \ref Endpoint_Read_Stream_BE().
1030:../LUFA_100807//LUFA/Drivers/USB/LowLevel/Endpoint.h **** 			 *
1031:../LUFA_100807//LUFA/Drivers/USB/LowLevel/Endpoint.h **** 			 *  \ingroup Group_EndpointStreamRW
1032:../LUFA_100807//LUFA/Drivers/USB/LowLevel/Endpoint.h **** 			 *
1033:../LUFA_100807//LUFA/Drivers/USB/LowLevel/Endpoint.h **** 			 *  \param[out] Buffer    Pointer to the destination data buffer to write to, located in EEPROM 
1034:../LUFA_100807//LUFA/Drivers/USB/LowLevel/Endpoint.h **** 			 *  \param[in]  Length    Number of bytes to send via the currently selected endpoint.
1035:../LUFA_100807//LUFA/Drivers/USB/LowLevel/Endpoint.h **** 			 *  \param[in]  Callback  Name of a callback routine to call between successive USB packet trans
1036:../LUFA_100807//LUFA/Drivers/USB/LowLevel/Endpoint.h **** 			 *
1037:../LUFA_100807//LUFA/Drivers/USB/LowLevel/Endpoint.h **** 			 *  \return A value from the \ref Endpoint_Stream_RW_ErrorCodes_t enum.
1038:../LUFA_100807//LUFA/Drivers/USB/LowLevel/Endpoint.h **** 			 */
1039:../LUFA_100807//LUFA/Drivers/USB/LowLevel/Endpoint.h **** 			uint8_t Endpoint_Read_EStream_BE(void* Buffer,
1040:../LUFA_100807//LUFA/Drivers/USB/LowLevel/Endpoint.h **** 			                                 uint16_t Length
1041:../LUFA_100807//LUFA/Drivers/USB/LowLevel/Endpoint.h **** 			                                 __CALLBACK_PARAM) ATTR_NON_NULL_PTR_ARG(1);
1042:../LUFA_100807//LUFA/Drivers/USB/LowLevel/Endpoint.h **** 
1043:../LUFA_100807//LUFA/Drivers/USB/LowLevel/Endpoint.h **** 			/** Writes the given number of bytes to the CONTROL type endpoint from the given buffer in littl
1044:../LUFA_100807//LUFA/Drivers/USB/LowLevel/Endpoint.h **** 			 *  sending full packets to the host as needed. The host OUT acknowledgement is not automaticall
1045:../LUFA_100807//LUFA/Drivers/USB/LowLevel/Endpoint.h **** 			 *  in both failure and success states; the user is responsible for manually clearing the setup 
1046:../LUFA_100807//LUFA/Drivers/USB/LowLevel/Endpoint.h **** 			 *  finalize the transfer via the \ref Endpoint_ClearOUT() macro.
1047:../LUFA_100807//LUFA/Drivers/USB/LowLevel/Endpoint.h **** 			 *
1048:../LUFA_100807//LUFA/Drivers/USB/LowLevel/Endpoint.h **** 			 *  \note This function automatically clears the control transfer's status stage. Do not manuall
1049:../LUFA_100807//LUFA/Drivers/USB/LowLevel/Endpoint.h **** 			 *        to clear the status stage when using this routine in a control transaction.
1050:../LUFA_100807//LUFA/Drivers/USB/LowLevel/Endpoint.h **** 			 *        \n\n
1051:../LUFA_100807//LUFA/Drivers/USB/LowLevel/Endpoint.h **** 			 *
1052:../LUFA_100807//LUFA/Drivers/USB/LowLevel/Endpoint.h **** 			 *  \note This routine should only be used on CONTROL type endpoints.
1053:../LUFA_100807//LUFA/Drivers/USB/LowLevel/Endpoint.h **** 			 *
1054:../LUFA_100807//LUFA/Drivers/USB/LowLevel/Endpoint.h **** 			 *  \warning Unlike the standard stream read/write commands, the control stream commands cannot 
1055:../LUFA_100807//LUFA/Drivers/USB/LowLevel/Endpoint.h **** 			 *           together; i.e. the entire stream data must be read or written at the one time.
1056:../LUFA_100807//LUFA/Drivers/USB/LowLevel/Endpoint.h **** 			 *
1057:../LUFA_100807//LUFA/Drivers/USB/LowLevel/Endpoint.h **** 			 *  \ingroup Group_EndpointStreamRW
1058:../LUFA_100807//LUFA/Drivers/USB/LowLevel/Endpoint.h **** 			 *
1059:../LUFA_100807//LUFA/Drivers/USB/LowLevel/Endpoint.h **** 			 *  \param[in] Buffer  Pointer to the source data buffer to read from.
1060:../LUFA_100807//LUFA/Drivers/USB/LowLevel/Endpoint.h **** 			 *  \param[in] Length  Number of bytes to read for the currently selected endpoint into the buff
1061:../LUFA_100807//LUFA/Drivers/USB/LowLevel/Endpoint.h **** 			 *
1062:../LUFA_100807//LUFA/Drivers/USB/LowLevel/Endpoint.h **** 			 *  \return A value from the \ref Endpoint_ControlStream_RW_ErrorCodes_t enum.
1063:../LUFA_100807//LUFA/Drivers/USB/LowLevel/Endpoint.h **** 			 */
1064:../LUFA_100807//LUFA/Drivers/USB/LowLevel/Endpoint.h **** 			uint8_t Endpoint_Write_Control_Stream_LE(const void* Buffer,
1065:../LUFA_100807//LUFA/Drivers/USB/LowLevel/Endpoint.h **** 			                                         uint16_t Length) ATTR_NON_NULL_PTR_ARG(1);
1066:../LUFA_100807//LUFA/Drivers/USB/LowLevel/Endpoint.h **** 
1067:../LUFA_100807//LUFA/Drivers/USB/LowLevel/Endpoint.h **** 			/** EEPROM buffer source version of Endpoint_Write_Control_Stream_LE.
1068:../LUFA_100807//LUFA/Drivers/USB/LowLevel/Endpoint.h **** 			 *
1069:../LUFA_100807//LUFA/Drivers/USB/LowLevel/Endpoint.h **** 			 *  \note This function automatically clears the control transfer's status stage. Do not manuall
1070:../LUFA_100807//LUFA/Drivers/USB/LowLevel/Endpoint.h **** 			 *        to clear the status stage when using this routine in a control transaction.
1071:../LUFA_100807//LUFA/Drivers/USB/LowLevel/Endpoint.h **** 			 *        \n\n
1072:../LUFA_100807//LUFA/Drivers/USB/LowLevel/Endpoint.h **** 			 *
1073:../LUFA_100807//LUFA/Drivers/USB/LowLevel/Endpoint.h **** 			 *  \note This routine should only be used on CONTROL type endpoints.
1074:../LUFA_100807//LUFA/Drivers/USB/LowLevel/Endpoint.h **** 			 *
1075:../LUFA_100807//LUFA/Drivers/USB/LowLevel/Endpoint.h **** 			 *  \warning Unlike the standard stream read/write commands, the control stream commands cannot 
1076:../LUFA_100807//LUFA/Drivers/USB/LowLevel/Endpoint.h **** 			 *           together; i.e. the entire stream data must be read or written at the one time.
1077:../LUFA_100807//LUFA/Drivers/USB/LowLevel/Endpoint.h **** 			 *
1078:../LUFA_100807//LUFA/Drivers/USB/LowLevel/Endpoint.h **** 			 *  \ingroup Group_EndpointStreamRW
1079:../LUFA_100807//LUFA/Drivers/USB/LowLevel/Endpoint.h **** 			 *
1080:../LUFA_100807//LUFA/Drivers/USB/LowLevel/Endpoint.h **** 			 *  \param[in] Buffer  Pointer to the source data buffer to read from.
1081:../LUFA_100807//LUFA/Drivers/USB/LowLevel/Endpoint.h **** 			 *  \param[in] Length  Number of bytes to read for the currently selected endpoint into the buff
1082:../LUFA_100807//LUFA/Drivers/USB/LowLevel/Endpoint.h **** 			 *
1083:../LUFA_100807//LUFA/Drivers/USB/LowLevel/Endpoint.h **** 			 *  \return A value from the \ref Endpoint_ControlStream_RW_ErrorCodes_t enum.
1084:../LUFA_100807//LUFA/Drivers/USB/LowLevel/Endpoint.h **** 			 */
1085:../LUFA_100807//LUFA/Drivers/USB/LowLevel/Endpoint.h **** 			uint8_t Endpoint_Write_Control_EStream_LE(const void* Buffer,
1086:../LUFA_100807//LUFA/Drivers/USB/LowLevel/Endpoint.h **** 			                                          uint16_t Length) ATTR_NON_NULL_PTR_ARG(1);
1087:../LUFA_100807//LUFA/Drivers/USB/LowLevel/Endpoint.h **** 
1088:../LUFA_100807//LUFA/Drivers/USB/LowLevel/Endpoint.h **** 			/** FLASH buffer source version of \ref Endpoint_Write_Control_Stream_LE().
1089:../LUFA_100807//LUFA/Drivers/USB/LowLevel/Endpoint.h **** 			 *
1090:../LUFA_100807//LUFA/Drivers/USB/LowLevel/Endpoint.h **** 			 *  \pre The FLASH data must be located in the first 64KB of FLASH for this function to work cor
1091:../LUFA_100807//LUFA/Drivers/USB/LowLevel/Endpoint.h **** 			 *
1092:../LUFA_100807//LUFA/Drivers/USB/LowLevel/Endpoint.h **** 			 *  \note This function automatically clears the control transfer's status stage. Do not manuall
1093:../LUFA_100807//LUFA/Drivers/USB/LowLevel/Endpoint.h **** 			 *        to clear the status stage when using this routine in a control transaction.
1094:../LUFA_100807//LUFA/Drivers/USB/LowLevel/Endpoint.h **** 			 *        \n\n
1095:../LUFA_100807//LUFA/Drivers/USB/LowLevel/Endpoint.h **** 			 *
1096:../LUFA_100807//LUFA/Drivers/USB/LowLevel/Endpoint.h **** 			 *  \note This routine should only be used on CONTROL type endpoints.
1097:../LUFA_100807//LUFA/Drivers/USB/LowLevel/Endpoint.h **** 			 *
1098:../LUFA_100807//LUFA/Drivers/USB/LowLevel/Endpoint.h **** 			 *  \warning Unlike the standard stream read/write commands, the control stream commands cannot 
1099:../LUFA_100807//LUFA/Drivers/USB/LowLevel/Endpoint.h **** 			 *           together; i.e. the entire stream data must be read or written at the one time.
1100:../LUFA_100807//LUFA/Drivers/USB/LowLevel/Endpoint.h **** 			 *
1101:../LUFA_100807//LUFA/Drivers/USB/LowLevel/Endpoint.h **** 			 *  \ingroup Group_EndpointStreamRW
1102:../LUFA_100807//LUFA/Drivers/USB/LowLevel/Endpoint.h **** 			 *
1103:../LUFA_100807//LUFA/Drivers/USB/LowLevel/Endpoint.h **** 			 *  \param[in] Buffer  Pointer to the source data buffer to read from.
1104:../LUFA_100807//LUFA/Drivers/USB/LowLevel/Endpoint.h **** 			 *  \param[in] Length  Number of bytes to read for the currently selected endpoint into the buff
1105:../LUFA_100807//LUFA/Drivers/USB/LowLevel/Endpoint.h **** 			 *
1106:../LUFA_100807//LUFA/Drivers/USB/LowLevel/Endpoint.h **** 			 *  \return A value from the \ref Endpoint_ControlStream_RW_ErrorCodes_t enum.
1107:../LUFA_100807//LUFA/Drivers/USB/LowLevel/Endpoint.h **** 			 */
1108:../LUFA_100807//LUFA/Drivers/USB/LowLevel/Endpoint.h **** 			uint8_t Endpoint_Write_Control_PStream_LE(const void* Buffer,
1109:../LUFA_100807//LUFA/Drivers/USB/LowLevel/Endpoint.h **** 			                                          uint16_t Length) ATTR_NON_NULL_PTR_ARG(1);
1110:../LUFA_100807//LUFA/Drivers/USB/LowLevel/Endpoint.h **** 
1111:../LUFA_100807//LUFA/Drivers/USB/LowLevel/Endpoint.h **** 			/** Writes the given number of bytes to the CONTROL type endpoint from the given buffer in big e
1112:../LUFA_100807//LUFA/Drivers/USB/LowLevel/Endpoint.h **** 			 *  sending full packets to the host as needed. The host OUT acknowledgement is not automaticall
1113:../LUFA_100807//LUFA/Drivers/USB/LowLevel/Endpoint.h **** 			 *  in both failure and success states; the user is responsible for manually clearing the setup 
1114:../LUFA_100807//LUFA/Drivers/USB/LowLevel/Endpoint.h **** 			 *  finalize the transfer via the \ref Endpoint_ClearOUT() macro.
1115:../LUFA_100807//LUFA/Drivers/USB/LowLevel/Endpoint.h **** 			 *
1116:../LUFA_100807//LUFA/Drivers/USB/LowLevel/Endpoint.h **** 			 *  \note This function automatically clears the control transfer's status stage. Do not manuall
1117:../LUFA_100807//LUFA/Drivers/USB/LowLevel/Endpoint.h **** 			 *        to clear the status stage when using this routine in a control transaction.
1118:../LUFA_100807//LUFA/Drivers/USB/LowLevel/Endpoint.h **** 			 *        \n\n
1119:../LUFA_100807//LUFA/Drivers/USB/LowLevel/Endpoint.h **** 			 *
1120:../LUFA_100807//LUFA/Drivers/USB/LowLevel/Endpoint.h **** 			 *  \note This routine should only be used on CONTROL type endpoints.
1121:../LUFA_100807//LUFA/Drivers/USB/LowLevel/Endpoint.h **** 			 *
1122:../LUFA_100807//LUFA/Drivers/USB/LowLevel/Endpoint.h **** 			 *  \warning Unlike the standard stream read/write commands, the control stream commands cannot 
1123:../LUFA_100807//LUFA/Drivers/USB/LowLevel/Endpoint.h **** 			 *           together; i.e. the entire stream data must be read or written at the one time.
1124:../LUFA_100807//LUFA/Drivers/USB/LowLevel/Endpoint.h **** 			 *
1125:../LUFA_100807//LUFA/Drivers/USB/LowLevel/Endpoint.h **** 			 *  \ingroup Group_EndpointStreamRW
1126:../LUFA_100807//LUFA/Drivers/USB/LowLevel/Endpoint.h **** 			 *
1127:../LUFA_100807//LUFA/Drivers/USB/LowLevel/Endpoint.h **** 			 *  \param[in] Buffer  Pointer to the source data buffer to read from.
1128:../LUFA_100807//LUFA/Drivers/USB/LowLevel/Endpoint.h **** 			 *  \param[in] Length  Number of bytes to read for the currently selected endpoint into the buff
1129:../LUFA_100807//LUFA/Drivers/USB/LowLevel/Endpoint.h **** 			 *
1130:../LUFA_100807//LUFA/Drivers/USB/LowLevel/Endpoint.h **** 			 *  \return A value from the \ref Endpoint_ControlStream_RW_ErrorCodes_t enum.
1131:../LUFA_100807//LUFA/Drivers/USB/LowLevel/Endpoint.h **** 			 */
1132:../LUFA_100807//LUFA/Drivers/USB/LowLevel/Endpoint.h **** 			uint8_t Endpoint_Write_Control_Stream_BE(const void* Buffer,
1133:../LUFA_100807//LUFA/Drivers/USB/LowLevel/Endpoint.h **** 			                                         uint16_t Length) ATTR_NON_NULL_PTR_ARG(1);
1134:../LUFA_100807//LUFA/Drivers/USB/LowLevel/Endpoint.h **** 
1135:../LUFA_100807//LUFA/Drivers/USB/LowLevel/Endpoint.h **** 			/** EEPROM buffer source version of \ref Endpoint_Write_Control_Stream_BE().
1136:../LUFA_100807//LUFA/Drivers/USB/LowLevel/Endpoint.h **** 			 *
1137:../LUFA_100807//LUFA/Drivers/USB/LowLevel/Endpoint.h **** 			 *  \note This function automatically clears the control transfer's status stage. Do not manuall
1138:../LUFA_100807//LUFA/Drivers/USB/LowLevel/Endpoint.h **** 			 *        to clear the status stage when using this routine in a control transaction.
1139:../LUFA_100807//LUFA/Drivers/USB/LowLevel/Endpoint.h **** 			 *        \n\n
1140:../LUFA_100807//LUFA/Drivers/USB/LowLevel/Endpoint.h **** 			 *
1141:../LUFA_100807//LUFA/Drivers/USB/LowLevel/Endpoint.h **** 			 *  \note This routine should only be used on CONTROL type endpoints.
1142:../LUFA_100807//LUFA/Drivers/USB/LowLevel/Endpoint.h **** 			 *
1143:../LUFA_100807//LUFA/Drivers/USB/LowLevel/Endpoint.h **** 			 *  \warning Unlike the standard stream read/write commands, the control stream commands cannot 
1144:../LUFA_100807//LUFA/Drivers/USB/LowLevel/Endpoint.h **** 			 *           together; i.e. the entire stream data must be read or written at the one time.
1145:../LUFA_100807//LUFA/Drivers/USB/LowLevel/Endpoint.h **** 			 *
1146:../LUFA_100807//LUFA/Drivers/USB/LowLevel/Endpoint.h **** 			 *  \ingroup Group_EndpointStreamRW
1147:../LUFA_100807//LUFA/Drivers/USB/LowLevel/Endpoint.h **** 			 *
1148:../LUFA_100807//LUFA/Drivers/USB/LowLevel/Endpoint.h **** 			 *  \param[in] Buffer  Pointer to the source data buffer to read from.
1149:../LUFA_100807//LUFA/Drivers/USB/LowLevel/Endpoint.h **** 			 *  \param[in] Length  Number of bytes to read for the currently selected endpoint into the buff
1150:../LUFA_100807//LUFA/Drivers/USB/LowLevel/Endpoint.h **** 			 *
1151:../LUFA_100807//LUFA/Drivers/USB/LowLevel/Endpoint.h **** 			 *  \return A value from the \ref Endpoint_ControlStream_RW_ErrorCodes_t enum.
1152:../LUFA_100807//LUFA/Drivers/USB/LowLevel/Endpoint.h **** 			 */
1153:../LUFA_100807//LUFA/Drivers/USB/LowLevel/Endpoint.h **** 			uint8_t Endpoint_Write_Control_EStream_BE(const void* Buffer,
1154:../LUFA_100807//LUFA/Drivers/USB/LowLevel/Endpoint.h **** 			                                          uint16_t Length) ATTR_NON_NULL_PTR_ARG(1);
1155:../LUFA_100807//LUFA/Drivers/USB/LowLevel/Endpoint.h **** 
1156:../LUFA_100807//LUFA/Drivers/USB/LowLevel/Endpoint.h **** 			/** FLASH buffer source version of \ref Endpoint_Write_Control_Stream_BE().
1157:../LUFA_100807//LUFA/Drivers/USB/LowLevel/Endpoint.h **** 			 *
1158:../LUFA_100807//LUFA/Drivers/USB/LowLevel/Endpoint.h **** 			 *  \pre The FLASH data must be located in the first 64KB of FLASH for this function to work cor
1159:../LUFA_100807//LUFA/Drivers/USB/LowLevel/Endpoint.h **** 			 *
1160:../LUFA_100807//LUFA/Drivers/USB/LowLevel/Endpoint.h **** 			 *  \note This function automatically clears the control transfer's status stage. Do not manuall
1161:../LUFA_100807//LUFA/Drivers/USB/LowLevel/Endpoint.h **** 			 *        to clear the status stage when using this routine in a control transaction.
1162:../LUFA_100807//LUFA/Drivers/USB/LowLevel/Endpoint.h **** 			 *        \n\n
1163:../LUFA_100807//LUFA/Drivers/USB/LowLevel/Endpoint.h **** 			 *
1164:../LUFA_100807//LUFA/Drivers/USB/LowLevel/Endpoint.h **** 			 *  \note This routine should only be used on CONTROL type endpoints.
1165:../LUFA_100807//LUFA/Drivers/USB/LowLevel/Endpoint.h **** 			 *
1166:../LUFA_100807//LUFA/Drivers/USB/LowLevel/Endpoint.h **** 			 *  \warning Unlike the standard stream read/write commands, the control stream commands cannot 
1167:../LUFA_100807//LUFA/Drivers/USB/LowLevel/Endpoint.h **** 			 *           together; i.e. the entire stream data must be read or written at the one time.
1168:../LUFA_100807//LUFA/Drivers/USB/LowLevel/Endpoint.h **** 			 *
1169:../LUFA_100807//LUFA/Drivers/USB/LowLevel/Endpoint.h **** 			 *  \ingroup Group_EndpointStreamRW
1170:../LUFA_100807//LUFA/Drivers/USB/LowLevel/Endpoint.h **** 			 *
1171:../LUFA_100807//LUFA/Drivers/USB/LowLevel/Endpoint.h **** 			 *  \param[in] Buffer  Pointer to the source data buffer to read from.
1172:../LUFA_100807//LUFA/Drivers/USB/LowLevel/Endpoint.h **** 			 *  \param[in] Length  Number of bytes to read for the currently selected endpoint into the buff
1173:../LUFA_100807//LUFA/Drivers/USB/LowLevel/Endpoint.h **** 			 *
1174:../LUFA_100807//LUFA/Drivers/USB/LowLevel/Endpoint.h **** 			 *  \return A value from the \ref Endpoint_ControlStream_RW_ErrorCodes_t enum.
1175:../LUFA_100807//LUFA/Drivers/USB/LowLevel/Endpoint.h **** 			 */
1176:../LUFA_100807//LUFA/Drivers/USB/LowLevel/Endpoint.h **** 			uint8_t Endpoint_Write_Control_PStream_BE(const void* Buffer,
1177:../LUFA_100807//LUFA/Drivers/USB/LowLevel/Endpoint.h **** 			                                          uint16_t Length) ATTR_NON_NULL_PTR_ARG(1);
1178:../LUFA_100807//LUFA/Drivers/USB/LowLevel/Endpoint.h **** 
1179:../LUFA_100807//LUFA/Drivers/USB/LowLevel/Endpoint.h **** 			/** Reads the given number of bytes from the CONTROL endpoint from the given buffer in little en
1180:../LUFA_100807//LUFA/Drivers/USB/LowLevel/Endpoint.h **** 			 *  discarding fully read packets from the host as needed. The device IN acknowledgement is not
1181:../LUFA_100807//LUFA/Drivers/USB/LowLevel/Endpoint.h **** 			 *  automatically sent after success or failure states; the user is responsible for manually sen
1182:../LUFA_100807//LUFA/Drivers/USB/LowLevel/Endpoint.h **** 			 *  setup IN to finalize the transfer via the \ref Endpoint_ClearIN() macro.
1183:../LUFA_100807//LUFA/Drivers/USB/LowLevel/Endpoint.h **** 			 *
1184:../LUFA_100807//LUFA/Drivers/USB/LowLevel/Endpoint.h **** 			 *  \note This function automatically clears the control transfer's status stage. Do not manuall
1185:../LUFA_100807//LUFA/Drivers/USB/LowLevel/Endpoint.h **** 			 *        to clear the status stage when using this routine in a control transaction.
1186:../LUFA_100807//LUFA/Drivers/USB/LowLevel/Endpoint.h **** 			 *        \n\n
1187:../LUFA_100807//LUFA/Drivers/USB/LowLevel/Endpoint.h **** 			 *
1188:../LUFA_100807//LUFA/Drivers/USB/LowLevel/Endpoint.h **** 			 *  \note This routine should only be used on CONTROL type endpoints.
1189:../LUFA_100807//LUFA/Drivers/USB/LowLevel/Endpoint.h **** 			 *
1190:../LUFA_100807//LUFA/Drivers/USB/LowLevel/Endpoint.h **** 			 *  \warning Unlike the standard stream read/write commands, the control stream commands cannot 
1191:../LUFA_100807//LUFA/Drivers/USB/LowLevel/Endpoint.h **** 			 *           together; i.e. the entire stream data must be read or written at the one time.
1192:../LUFA_100807//LUFA/Drivers/USB/LowLevel/Endpoint.h **** 			 *
1193:../LUFA_100807//LUFA/Drivers/USB/LowLevel/Endpoint.h **** 			 *  \ingroup Group_EndpointStreamRW
1194:../LUFA_100807//LUFA/Drivers/USB/LowLevel/Endpoint.h **** 			 *
1195:../LUFA_100807//LUFA/Drivers/USB/LowLevel/Endpoint.h **** 			 *  \param[out] Buffer  Pointer to the destination data buffer to write to.
1196:../LUFA_100807//LUFA/Drivers/USB/LowLevel/Endpoint.h **** 			 *  \param[in]  Length  Number of bytes to send via the currently selected endpoint.
1197:../LUFA_100807//LUFA/Drivers/USB/LowLevel/Endpoint.h **** 			 *
1198:../LUFA_100807//LUFA/Drivers/USB/LowLevel/Endpoint.h **** 			 *  \return A value from the \ref Endpoint_ControlStream_RW_ErrorCodes_t enum.
1199:../LUFA_100807//LUFA/Drivers/USB/LowLevel/Endpoint.h **** 			 */
1200:../LUFA_100807//LUFA/Drivers/USB/LowLevel/Endpoint.h **** 			uint8_t Endpoint_Read_Control_Stream_LE(void* Buffer,
1201:../LUFA_100807//LUFA/Drivers/USB/LowLevel/Endpoint.h **** 			                                        uint16_t Length) ATTR_NON_NULL_PTR_ARG(1);
1202:../LUFA_100807//LUFA/Drivers/USB/LowLevel/Endpoint.h **** 
1203:../LUFA_100807//LUFA/Drivers/USB/LowLevel/Endpoint.h **** 			/** EEPROM buffer source version of \ref Endpoint_Read_Control_Stream_LE().
1204:../LUFA_100807//LUFA/Drivers/USB/LowLevel/Endpoint.h **** 			 *
1205:../LUFA_100807//LUFA/Drivers/USB/LowLevel/Endpoint.h **** 			 *  \note This function automatically clears the control transfer's status stage. Do not manuall
1206:../LUFA_100807//LUFA/Drivers/USB/LowLevel/Endpoint.h **** 			 *        to clear the status stage when using this routine in a control transaction.
1207:../LUFA_100807//LUFA/Drivers/USB/LowLevel/Endpoint.h **** 			 *        \n\n
1208:../LUFA_100807//LUFA/Drivers/USB/LowLevel/Endpoint.h **** 			 *
1209:../LUFA_100807//LUFA/Drivers/USB/LowLevel/Endpoint.h **** 			 *  \note This routine should only be used on CONTROL type endpoints.
1210:../LUFA_100807//LUFA/Drivers/USB/LowLevel/Endpoint.h **** 			 *
1211:../LUFA_100807//LUFA/Drivers/USB/LowLevel/Endpoint.h **** 			 *  \warning Unlike the standard stream read/write commands, the control stream commands cannot 
1212:../LUFA_100807//LUFA/Drivers/USB/LowLevel/Endpoint.h **** 			 *           together; i.e. the entire stream data must be read or written at the one time.
1213:../LUFA_100807//LUFA/Drivers/USB/LowLevel/Endpoint.h **** 			 *
1214:../LUFA_100807//LUFA/Drivers/USB/LowLevel/Endpoint.h **** 			 *  \ingroup Group_EndpointStreamRW
1215:../LUFA_100807//LUFA/Drivers/USB/LowLevel/Endpoint.h **** 			 *
1216:../LUFA_100807//LUFA/Drivers/USB/LowLevel/Endpoint.h **** 			 *  \param[out] Buffer  Pointer to the destination data buffer to write to.
1217:../LUFA_100807//LUFA/Drivers/USB/LowLevel/Endpoint.h **** 			 *  \param[in]  Length  Number of bytes to send via the currently selected endpoint.
1218:../LUFA_100807//LUFA/Drivers/USB/LowLevel/Endpoint.h **** 			 *
1219:../LUFA_100807//LUFA/Drivers/USB/LowLevel/Endpoint.h **** 			 *  \return A value from the \ref Endpoint_ControlStream_RW_ErrorCodes_t enum.
1220:../LUFA_100807//LUFA/Drivers/USB/LowLevel/Endpoint.h **** 			 */
1221:../LUFA_100807//LUFA/Drivers/USB/LowLevel/Endpoint.h **** 			uint8_t Endpoint_Read_Control_EStream_LE(void* Buffer,
1222:../LUFA_100807//LUFA/Drivers/USB/LowLevel/Endpoint.h **** 			                                         uint16_t Length) ATTR_NON_NULL_PTR_ARG(1);
1223:../LUFA_100807//LUFA/Drivers/USB/LowLevel/Endpoint.h **** 
1224:../LUFA_100807//LUFA/Drivers/USB/LowLevel/Endpoint.h **** 			/** Reads the given number of bytes from the CONTROL endpoint from the given buffer in big endia
1225:../LUFA_100807//LUFA/Drivers/USB/LowLevel/Endpoint.h **** 			 *  discarding fully read packets from the host as needed. The device IN acknowledgement is not
1226:../LUFA_100807//LUFA/Drivers/USB/LowLevel/Endpoint.h **** 			 *  automatically sent after success or failure states; the user is responsible for manually sen
1227:../LUFA_100807//LUFA/Drivers/USB/LowLevel/Endpoint.h **** 			 *  setup IN to finalize the transfer via the \ref Endpoint_ClearIN() macro.
1228:../LUFA_100807//LUFA/Drivers/USB/LowLevel/Endpoint.h **** 			 *
1229:../LUFA_100807//LUFA/Drivers/USB/LowLevel/Endpoint.h **** 			 *  \note This function automatically clears the control transfer's status stage. Do not manuall
1230:../LUFA_100807//LUFA/Drivers/USB/LowLevel/Endpoint.h **** 			 *        to clear the status stage when using this routine in a control transaction.
1231:../LUFA_100807//LUFA/Drivers/USB/LowLevel/Endpoint.h **** 			 *        \n\n
1232:../LUFA_100807//LUFA/Drivers/USB/LowLevel/Endpoint.h **** 			 *
1233:../LUFA_100807//LUFA/Drivers/USB/LowLevel/Endpoint.h **** 			 *  \note This routine should only be used on CONTROL type endpoints.
1234:../LUFA_100807//LUFA/Drivers/USB/LowLevel/Endpoint.h **** 			 *
1235:../LUFA_100807//LUFA/Drivers/USB/LowLevel/Endpoint.h **** 			 *  \warning Unlike the standard stream read/write commands, the control stream commands cannot 
1236:../LUFA_100807//LUFA/Drivers/USB/LowLevel/Endpoint.h **** 			 *           together; i.e. the entire stream data must be read or written at the one time.
1237:../LUFA_100807//LUFA/Drivers/USB/LowLevel/Endpoint.h **** 			 *
1238:../LUFA_100807//LUFA/Drivers/USB/LowLevel/Endpoint.h **** 			 *  \ingroup Group_EndpointStreamRW
1239:../LUFA_100807//LUFA/Drivers/USB/LowLevel/Endpoint.h **** 			 *
1240:../LUFA_100807//LUFA/Drivers/USB/LowLevel/Endpoint.h **** 			 *  \param[out] Buffer  Pointer to the destination data buffer to write to.
1241:../LUFA_100807//LUFA/Drivers/USB/LowLevel/Endpoint.h **** 			 *  \param[in]  Length  Number of bytes to send via the currently selected endpoint.
1242:../LUFA_100807//LUFA/Drivers/USB/LowLevel/Endpoint.h **** 			 *
1243:../LUFA_100807//LUFA/Drivers/USB/LowLevel/Endpoint.h **** 			 *  \return A value from the \ref Endpoint_ControlStream_RW_ErrorCodes_t enum.
1244:../LUFA_100807//LUFA/Drivers/USB/LowLevel/Endpoint.h **** 			 */
1245:../LUFA_100807//LUFA/Drivers/USB/LowLevel/Endpoint.h **** 			uint8_t Endpoint_Read_Control_Stream_BE(void* Buffer,
1246:../LUFA_100807//LUFA/Drivers/USB/LowLevel/Endpoint.h **** 			                                        uint16_t Length) ATTR_NON_NULL_PTR_ARG(1);
1247:../LUFA_100807//LUFA/Drivers/USB/LowLevel/Endpoint.h **** 			
1248:../LUFA_100807//LUFA/Drivers/USB/LowLevel/Endpoint.h **** 			/** EEPROM buffer source version of \ref Endpoint_Read_Control_Stream_BE().
1249:../LUFA_100807//LUFA/Drivers/USB/LowLevel/Endpoint.h **** 			 *
1250:../LUFA_100807//LUFA/Drivers/USB/LowLevel/Endpoint.h **** 			 *  \note This function automatically clears the control transfer's status stage. Do not manuall
1251:../LUFA_100807//LUFA/Drivers/USB/LowLevel/Endpoint.h **** 			 *        to clear the status stage when using this routine in a control transaction.
1252:../LUFA_100807//LUFA/Drivers/USB/LowLevel/Endpoint.h **** 			 *        \n\n
1253:../LUFA_100807//LUFA/Drivers/USB/LowLevel/Endpoint.h **** 			 *
1254:../LUFA_100807//LUFA/Drivers/USB/LowLevel/Endpoint.h **** 			 *  \note This routine should only be used on CONTROL type endpoints.
1255:../LUFA_100807//LUFA/Drivers/USB/LowLevel/Endpoint.h **** 			 *
1256:../LUFA_100807//LUFA/Drivers/USB/LowLevel/Endpoint.h **** 			 *  \warning Unlike the standard stream read/write commands, the control stream commands cannot 
1257:../LUFA_100807//LUFA/Drivers/USB/LowLevel/Endpoint.h **** 			 *           together; i.e. the entire stream data must be read or written at the one time.
1258:../LUFA_100807//LUFA/Drivers/USB/LowLevel/Endpoint.h **** 			 *
1259:../LUFA_100807//LUFA/Drivers/USB/LowLevel/Endpoint.h **** 			 *  \ingroup Group_EndpointStreamRW
1260:../LUFA_100807//LUFA/Drivers/USB/LowLevel/Endpoint.h **** 			 *
1261:../LUFA_100807//LUFA/Drivers/USB/LowLevel/Endpoint.h **** 			 *  \param[out] Buffer  Pointer to the destination data buffer to write to.
1262:../LUFA_100807//LUFA/Drivers/USB/LowLevel/Endpoint.h **** 			 *  \param[in]  Length  Number of bytes to send via the currently selected endpoint.
1263:../LUFA_100807//LUFA/Drivers/USB/LowLevel/Endpoint.h **** 			 *
1264:../LUFA_100807//LUFA/Drivers/USB/LowLevel/Endpoint.h **** 			 *  \return A value from the \ref Endpoint_ControlStream_RW_ErrorCodes_t enum.
1265:../LUFA_100807//LUFA/Drivers/USB/LowLevel/Endpoint.h **** 			 */
1266:../LUFA_100807//LUFA/Drivers/USB/LowLevel/Endpoint.h **** 			uint8_t Endpoint_Read_Control_EStream_BE(void* Buffer,
1267:../LUFA_100807//LUFA/Drivers/USB/LowLevel/Endpoint.h **** 			                                         uint16_t Length) ATTR_NON_NULL_PTR_ARG(1);
1268:../LUFA_100807//LUFA/Drivers/USB/LowLevel/Endpoint.h **** 
1269:../LUFA_100807//LUFA/Drivers/USB/LowLevel/Endpoint.h **** 	/* Private Interface - For use in library only: */
1270:../LUFA_100807//LUFA/Drivers/USB/LowLevel/Endpoint.h **** 	#if !defined(__DOXYGEN__)
1271:../LUFA_100807//LUFA/Drivers/USB/LowLevel/Endpoint.h **** 		/* Macros: */
1272:../LUFA_100807//LUFA/Drivers/USB/LowLevel/Endpoint.h **** 			#define _ENDPOINT_GET_MAXSIZE(n)               _ENDPOINT_GET_MAXSIZE2(ENDPOINT_DETAILS_EP ## n)
1273:../LUFA_100807//LUFA/Drivers/USB/LowLevel/Endpoint.h **** 			#define _ENDPOINT_GET_MAXSIZE2(details)        _ENDPOINT_GET_MAXSIZE3(details)
1274:../LUFA_100807//LUFA/Drivers/USB/LowLevel/Endpoint.h **** 			#define _ENDPOINT_GET_MAXSIZE3(maxsize, db)    maxsize
1275:../LUFA_100807//LUFA/Drivers/USB/LowLevel/Endpoint.h **** 
1276:../LUFA_100807//LUFA/Drivers/USB/LowLevel/Endpoint.h **** 			#define _ENDPOINT_GET_DOUBLEBANK(n)            _ENDPOINT_GET_DOUBLEBANK2(ENDPOINT_DETAILS_EP ## 
1277:../LUFA_100807//LUFA/Drivers/USB/LowLevel/Endpoint.h **** 			#define _ENDPOINT_GET_DOUBLEBANK2(details)     _ENDPOINT_GET_DOUBLEBANK3(details)
1278:../LUFA_100807//LUFA/Drivers/USB/LowLevel/Endpoint.h **** 			#define _ENDPOINT_GET_DOUBLEBANK3(maxsize, db) db
1279:../LUFA_100807//LUFA/Drivers/USB/LowLevel/Endpoint.h **** 			
1280:../LUFA_100807//LUFA/Drivers/USB/LowLevel/Endpoint.h **** 			#if defined(USB_SERIES_4_AVR) || defined(USB_SERIES_6_AVR) || defined(USB_SERIES_7_AVR)
1281:../LUFA_100807//LUFA/Drivers/USB/LowLevel/Endpoint.h **** 				#define ENDPOINT_DETAILS_EP0               64,  true
1282:../LUFA_100807//LUFA/Drivers/USB/LowLevel/Endpoint.h **** 				#define ENDPOINT_DETAILS_EP1               256, true
1283:../LUFA_100807//LUFA/Drivers/USB/LowLevel/Endpoint.h **** 				#define ENDPOINT_DETAILS_EP2               64,  true
1284:../LUFA_100807//LUFA/Drivers/USB/LowLevel/Endpoint.h **** 				#define ENDPOINT_DETAILS_EP3               64,  true
1285:../LUFA_100807//LUFA/Drivers/USB/LowLevel/Endpoint.h **** 				#define ENDPOINT_DETAILS_EP4               64,  true
1286:../LUFA_100807//LUFA/Drivers/USB/LowLevel/Endpoint.h **** 				#define ENDPOINT_DETAILS_EP5               64,  true
1287:../LUFA_100807//LUFA/Drivers/USB/LowLevel/Endpoint.h **** 				#define ENDPOINT_DETAILS_EP6               64,  true
1288:../LUFA_100807//LUFA/Drivers/USB/LowLevel/Endpoint.h **** 			#else
1289:../LUFA_100807//LUFA/Drivers/USB/LowLevel/Endpoint.h **** 				#define ENDPOINT_DETAILS_EP0               64,  true
1290:../LUFA_100807//LUFA/Drivers/USB/LowLevel/Endpoint.h **** 				#define ENDPOINT_DETAILS_EP1               64,  false
1291:../LUFA_100807//LUFA/Drivers/USB/LowLevel/Endpoint.h **** 				#define ENDPOINT_DETAILS_EP2               64,  false
1292:../LUFA_100807//LUFA/Drivers/USB/LowLevel/Endpoint.h **** 				#define ENDPOINT_DETAILS_EP3               64,  true
1293:../LUFA_100807//LUFA/Drivers/USB/LowLevel/Endpoint.h **** 				#define ENDPOINT_DETAILS_EP4               64,  true			
1294:../LUFA_100807//LUFA/Drivers/USB/LowLevel/Endpoint.h **** 			#endif
1295:../LUFA_100807//LUFA/Drivers/USB/LowLevel/Endpoint.h **** 
1296:../LUFA_100807//LUFA/Drivers/USB/LowLevel/Endpoint.h **** 			#define Endpoint_ConfigureEndpoint(Number, Type, Direction, Size, Banks)                        
1297:../LUFA_100807//LUFA/Drivers/USB/LowLevel/Endpoint.h **** 			                     (__builtin_constant_p(Size) ? Endpoint_ConfigureEndpointStatic((Number),   
1298:../LUFA_100807//LUFA/Drivers/USB/LowLevel/Endpoint.h **** 			                                                                                    (Type),     
1299:../LUFA_100807//LUFA/Drivers/USB/LowLevel/Endpoint.h **** 			                                                                                    (Direction),
1300:../LUFA_100807//LUFA/Drivers/USB/LowLevel/Endpoint.h **** 			                                                                                    Size, Banks)
1301:../LUFA_100807//LUFA/Drivers/USB/LowLevel/Endpoint.h **** 			                                                   Endpoint_ConfigureEndpointDynamic((Number),  
1302:../LUFA_100807//LUFA/Drivers/USB/LowLevel/Endpoint.h **** 			                                                                                     (Type),    
1303:../LUFA_100807//LUFA/Drivers/USB/LowLevel/Endpoint.h **** 			                                                                                     (Direction)
1304:../LUFA_100807//LUFA/Drivers/USB/LowLevel/Endpoint.h **** 			                                                                                     Size, Banks
1305:../LUFA_100807//LUFA/Drivers/USB/LowLevel/Endpoint.h **** 
1306:../LUFA_100807//LUFA/Drivers/USB/LowLevel/Endpoint.h **** 		/* Function Prototypes: */
1307:../LUFA_100807//LUFA/Drivers/USB/LowLevel/Endpoint.h **** 			void    Endpoint_ClearEndpoints(void);
1308:../LUFA_100807//LUFA/Drivers/USB/LowLevel/Endpoint.h **** 			uint8_t Endpoint_BytesToEPSizeMaskDynamic(const uint16_t Size);
1309:../LUFA_100807//LUFA/Drivers/USB/LowLevel/Endpoint.h **** 			bool    Endpoint_ConfigureEndpoint_Prv(const uint8_t Number,
1310:../LUFA_100807//LUFA/Drivers/USB/LowLevel/Endpoint.h **** 			                                       const uint8_t UECFG0XData,
1311:../LUFA_100807//LUFA/Drivers/USB/LowLevel/Endpoint.h **** 			                                       const uint8_t UECFG1XData);			
1312:../LUFA_100807//LUFA/Drivers/USB/LowLevel/Endpoint.h **** 
1313:../LUFA_100807//LUFA/Drivers/USB/LowLevel/Endpoint.h **** 		/* Inline Functions: */
1314:../LUFA_100807//LUFA/Drivers/USB/LowLevel/Endpoint.h **** 			static inline uint8_t Endpoint_BytesToEPSizeMask(const uint16_t Bytes) ATTR_WARN_UNUSED_RESULT A
1315:../LUFA_100807//LUFA/Drivers/USB/LowLevel/Endpoint.h **** 			static inline uint8_t Endpoint_BytesToEPSizeMask(const uint16_t Bytes)
1316:../LUFA_100807//LUFA/Drivers/USB/LowLevel/Endpoint.h **** 			{
1317:../LUFA_100807//LUFA/Drivers/USB/LowLevel/Endpoint.h **** 				uint8_t  MaskVal    = 0;
1318:../LUFA_100807//LUFA/Drivers/USB/LowLevel/Endpoint.h **** 				uint16_t CheckBytes = 8;
  28               		.loc 2 1318 0
  29 0002 28E0      		ldi r18,lo8(8)
  30 0004 30E0      		ldi r19,0
1317:../LUFA_100807//LUFA/Drivers/USB/LowLevel/Endpoint.h **** 				uint16_t CheckBytes = 8;
  31               		.loc 2 1317 0
  32 0006 80E0      		ldi r24,0
  33               	.LVL2:
  34               	.L2:
1319:../LUFA_100807//LUFA/Drivers/USB/LowLevel/Endpoint.h **** 				
1320:../LUFA_100807//LUFA/Drivers/USB/LowLevel/Endpoint.h **** 				while (CheckBytes < Bytes)
  35               		.loc 2 1320 0
  36 0008 2417      		cp r18,r20
  37 000a 3507      		cpc r19,r21
  38 000c 00F0      		brlo .L3
  39               	.LVL3:
  40               	.LBE184:
  41               	.LBE183:
  45:../LUFA_100807//LUFA/Drivers/USB/LowLevel/Endpoint.c **** 	return Endpoint_BytesToEPSizeMask(Size);
  46:../LUFA_100807//LUFA/Drivers/USB/LowLevel/Endpoint.c **** }
  42               		.loc 1 46 0
  43 000e 8295      		swap r24
  44 0010 807F      		andi r24,lo8(-16)
  45               	/* epilogue start */
  46 0012 0895      		ret
  47               	.LVL4:
  48               	.L3:
  49               	.LBB186:
  50               	.LBB185:
1321:../LUFA_100807//LUFA/Drivers/USB/LowLevel/Endpoint.h **** 				{
1322:../LUFA_100807//LUFA/Drivers/USB/LowLevel/Endpoint.h **** 					MaskVal++;
  51               		.loc 2 1322 0
  52 0014 8F5F      		subi r24,lo8(-(1))
  53               	.LVL5:
1323:../LUFA_100807//LUFA/Drivers/USB/LowLevel/Endpoint.h **** 					CheckBytes <<= 1;
  54               		.loc 2 1323 0
  55 0016 220F      		lsl r18
  56 0018 331F      		rol r19
  57               	.LVL6:
  58 001a 00C0      		rjmp .L2
  59               	.LBE185:
  60               	.LBE186:
  61               		.cfi_endproc
  62               	.LFE64:
  64               		.section	.text.Endpoint_ConfigureEndpoint_Prv,"ax",@progbits
  65               	.global	Endpoint_ConfigureEndpoint_Prv
  67               	Endpoint_ConfigureEndpoint_Prv:
  68               	.LFB65:
  47:../LUFA_100807//LUFA/Drivers/USB/LowLevel/Endpoint.c **** 
  48:../LUFA_100807//LUFA/Drivers/USB/LowLevel/Endpoint.c **** bool Endpoint_ConfigureEndpoint_Prv(const uint8_t Number,
  49:../LUFA_100807//LUFA/Drivers/USB/LowLevel/Endpoint.c ****                                     const uint8_t UECFG0XData,
  50:../LUFA_100807//LUFA/Drivers/USB/LowLevel/Endpoint.c ****                                     const uint8_t UECFG1XData)
  51:../LUFA_100807//LUFA/Drivers/USB/LowLevel/Endpoint.c **** {
  69               		.loc 1 51 0
  70               		.cfi_startproc
  71               	.LVL7:
  72               	/* prologue: function */
  73               	/* frame size = 0 */
  74               	/* stack size = 0 */
  75               	.L__stack_usage = 0
  76               	.LBB187:
  77               	.LBB188:
 323:../LUFA_100807//LUFA/Drivers/USB/LowLevel/Endpoint.h **** 			}
  78               		.loc 2 323 0
  79 0000 EBEE      		ldi r30,lo8(-21)
  80 0002 F0E0      		ldi r31,0
  81 0004 8081      		ld r24,Z
  82               	.LVL8:
  83 0006 8160      		ori r24,lo8(1)
  84 0008 8083      		st Z,r24
  85               	.LBE188:
  86               	.LBE187:
  52:../LUFA_100807//LUFA/Drivers/USB/LowLevel/Endpoint.c **** 	Endpoint_SelectEndpoint(Number);
  53:../LUFA_100807//LUFA/Drivers/USB/LowLevel/Endpoint.c **** 	Endpoint_EnableEndpoint();
  54:../LUFA_100807//LUFA/Drivers/USB/LowLevel/Endpoint.c **** 
  55:../LUFA_100807//LUFA/Drivers/USB/LowLevel/Endpoint.c **** 	UECFG1X = 0;
  87               		.loc 1 55 0
  88 000a EDEE      		ldi r30,lo8(-19)
  89 000c F0E0      		ldi r31,0
  90 000e 1082      		st Z,__zero_reg__
  56:../LUFA_100807//LUFA/Drivers/USB/LowLevel/Endpoint.c **** 
  57:../LUFA_100807//LUFA/Drivers/USB/LowLevel/Endpoint.c **** 	UECFG0X = UECFG0XData;
  91               		.loc 1 57 0
  92 0010 6093 EC00 		sts 236,r22
  58:../LUFA_100807//LUFA/Drivers/USB/LowLevel/Endpoint.c **** 	UECFG1X = UECFG1XData;
  93               		.loc 1 58 0
  94 0014 4083      		st Z,r20
  95               	.LBB189:
  96               	.LBB190:
 368:../LUFA_100807//LUFA/Drivers/USB/LowLevel/Endpoint.h **** 			}
  97               		.loc 2 368 0
  98 0016 8091 EE00 		lds r24,238
  99               	.LBE190:
 100               	.LBE189:
  59:../LUFA_100807//LUFA/Drivers/USB/LowLevel/Endpoint.c **** 
  60:../LUFA_100807//LUFA/Drivers/USB/LowLevel/Endpoint.c **** 	return Endpoint_IsConfigured();
  61:../LUFA_100807//LUFA/Drivers/USB/LowLevel/Endpoint.c **** }
 101               		.loc 1 61 0
 102 001a 881F      		rol r24
 103 001c 8827      		clr r24
 104 001e 881F      		rol r24
 105               	/* epilogue start */
 106 0020 0895      		ret
 107               		.cfi_endproc
 108               	.LFE65:
 110               		.section	.text.Endpoint_ClearEndpoints,"ax",@progbits
 111               	.global	Endpoint_ClearEndpoints
 113               	Endpoint_ClearEndpoints:
 114               	.LFB66:
  62:../LUFA_100807//LUFA/Drivers/USB/LowLevel/Endpoint.c **** 
  63:../LUFA_100807//LUFA/Drivers/USB/LowLevel/Endpoint.c **** void Endpoint_ClearEndpoints(void)
  64:../LUFA_100807//LUFA/Drivers/USB/LowLevel/Endpoint.c **** {
 115               		.loc 1 64 0
 116               		.cfi_startproc
 117               	/* prologue: function */
 118               	/* frame size = 0 */
 119               	/* stack size = 0 */
 120               	.L__stack_usage = 0
  65:../LUFA_100807//LUFA/Drivers/USB/LowLevel/Endpoint.c **** 	UEINT = 0;
 121               		.loc 1 65 0
 122 0000 1092 F400 		sts 244,__zero_reg__
 123               	.LVL9:
 124               	.LBB191:
  66:../LUFA_100807//LUFA/Drivers/USB/LowLevel/Endpoint.c **** 
  67:../LUFA_100807//LUFA/Drivers/USB/LowLevel/Endpoint.c **** 	for (uint8_t EPNum = 0; EPNum < ENDPOINT_TOTAL_ENDPOINTS; EPNum++)
  68:../LUFA_100807//LUFA/Drivers/USB/LowLevel/Endpoint.c **** 	{
  69:../LUFA_100807//LUFA/Drivers/USB/LowLevel/Endpoint.c **** 		Endpoint_SelectEndpoint(EPNum);	
  70:../LUFA_100807//LUFA/Drivers/USB/LowLevel/Endpoint.c **** 		UEIENX  = 0;
 125               		.loc 1 70 0
 126 0004 1092 F000 		sts 240,__zero_reg__
  71:../LUFA_100807//LUFA/Drivers/USB/LowLevel/Endpoint.c **** 		UEINTX  = 0;
 127               		.loc 1 71 0
 128 0008 1092 E800 		sts 232,__zero_reg__
  72:../LUFA_100807//LUFA/Drivers/USB/LowLevel/Endpoint.c **** 		UECFG1X = 0;
 129               		.loc 1 72 0
 130 000c 1092 ED00 		sts 237,__zero_reg__
 131               	.LBB192:
 132               	.LBB193:
 332:../LUFA_100807//LUFA/Drivers/USB/LowLevel/Endpoint.h **** 			}
 133               		.loc 2 332 0
 134 0010 EBEE      		ldi r30,lo8(-21)
 135 0012 F0E0      		ldi r31,0
 136 0014 8081      		ld r24,Z
 137 0016 8E7F      		andi r24,lo8(-2)
 138 0018 8083      		st Z,r24
 139               	.LVL10:
 140               	/* epilogue start */
 141               	.LBE193:
 142               	.LBE192:
 143               	.LBE191:
  73:../LUFA_100807//LUFA/Drivers/USB/LowLevel/Endpoint.c **** 		Endpoint_DisableEndpoint();
  74:../LUFA_100807//LUFA/Drivers/USB/LowLevel/Endpoint.c **** 	}
  75:../LUFA_100807//LUFA/Drivers/USB/LowLevel/Endpoint.c **** }
 144               		.loc 1 75 0
 145 001a 0895      		ret
 146               		.cfi_endproc
 147               	.LFE66:
 149               		.section	.text.Endpoint_ClearStatusStage,"ax",@progbits
 150               	.global	Endpoint_ClearStatusStage
 152               	Endpoint_ClearStatusStage:
 153               	.LFB67:
  76:../LUFA_100807//LUFA/Drivers/USB/LowLevel/Endpoint.c **** 
  77:../LUFA_100807//LUFA/Drivers/USB/LowLevel/Endpoint.c **** void Endpoint_ClearStatusStage(void)
  78:../LUFA_100807//LUFA/Drivers/USB/LowLevel/Endpoint.c **** {
 154               		.loc 1 78 0
 155               		.cfi_startproc
 156               	/* prologue: function */
 157               	/* frame size = 0 */
 158               	/* stack size = 0 */
 159               	.L__stack_usage = 0
  79:../LUFA_100807//LUFA/Drivers/USB/LowLevel/Endpoint.c **** 	if (USB_ControlRequest.bmRequestType & REQDIR_DEVICETOHOST)
 160               		.loc 1 79 0
 161 0000 8091 0000 		lds r24,USB_ControlRequest
 162 0004 87FF      		sbrs r24,7
 163 0006 00C0      		rjmp .L8
 164               	.L7:
 165               	.LBB194:
 166               	.LBB195:
 417:../LUFA_100807//LUFA/Drivers/USB/LowLevel/Endpoint.h **** 			}
 167               		.loc 2 417 0
 168 0008 8091 E800 		lds r24,232
 169               	.LBE195:
 170               	.LBE194:
  80:../LUFA_100807//LUFA/Drivers/USB/LowLevel/Endpoint.c **** 	{
  81:../LUFA_100807//LUFA/Drivers/USB/LowLevel/Endpoint.c **** 		while (!(Endpoint_IsOUTReceived()))
 171               		.loc 1 81 0
 172 000c 82FF      		sbrs r24,2
 173 000e 00C0      		rjmp .L10
 174               	.LBB196:
 175               	.LBB197:
 471:../LUFA_100807//LUFA/Drivers/USB/LowLevel/Endpoint.h **** 				#endif
 176               		.loc 2 471 0
 177 0010 8091 E800 		lds r24,232
 178 0014 8B7F      		andi r24,lo8(-5)
 179               	.L19:
 180               	.LBE197:
 181               	.LBE196:
 182               	.LBB198:
 183               	.LBB199:
 456:../LUFA_100807//LUFA/Drivers/USB/LowLevel/Endpoint.h **** 				#endif
 184               		.loc 2 456 0
 185 0016 8093 E800 		sts 232,r24
 186 001a 00C0      		rjmp .L6
 187               	.L10:
 188               	.LBE199:
 189               	.LBE198:
  82:../LUFA_100807//LUFA/Drivers/USB/LowLevel/Endpoint.c **** 		{
  83:../LUFA_100807//LUFA/Drivers/USB/LowLevel/Endpoint.c **** 			if (USB_DeviceState == DEVICE_STATE_Unattached)
 190               		.loc 1 83 0
 191 001c 8EB3      		in r24,0x1e
 192 001e 8111      		cpse r24,__zero_reg__
 193 0020 00C0      		rjmp .L7
 194               	.L6:
 195               	/* epilogue start */
  84:../LUFA_100807//LUFA/Drivers/USB/LowLevel/Endpoint.c **** 			  return;
  85:../LUFA_100807//LUFA/Drivers/USB/LowLevel/Endpoint.c **** 		}
  86:../LUFA_100807//LUFA/Drivers/USB/LowLevel/Endpoint.c **** 
  87:../LUFA_100807//LUFA/Drivers/USB/LowLevel/Endpoint.c **** 		Endpoint_ClearOUT();
  88:../LUFA_100807//LUFA/Drivers/USB/LowLevel/Endpoint.c **** 	}
  89:../LUFA_100807//LUFA/Drivers/USB/LowLevel/Endpoint.c **** 	else
  90:../LUFA_100807//LUFA/Drivers/USB/LowLevel/Endpoint.c **** 	{
  91:../LUFA_100807//LUFA/Drivers/USB/LowLevel/Endpoint.c **** 		while (!(Endpoint_IsINReady()))
  92:../LUFA_100807//LUFA/Drivers/USB/LowLevel/Endpoint.c **** 		{
  93:../LUFA_100807//LUFA/Drivers/USB/LowLevel/Endpoint.c **** 			if (USB_DeviceState == DEVICE_STATE_Unattached)
  94:../LUFA_100807//LUFA/Drivers/USB/LowLevel/Endpoint.c **** 			  return;
  95:../LUFA_100807//LUFA/Drivers/USB/LowLevel/Endpoint.c **** 		}
  96:../LUFA_100807//LUFA/Drivers/USB/LowLevel/Endpoint.c **** 		
  97:../LUFA_100807//LUFA/Drivers/USB/LowLevel/Endpoint.c **** 		Endpoint_ClearIN();
  98:../LUFA_100807//LUFA/Drivers/USB/LowLevel/Endpoint.c **** 	}
  99:../LUFA_100807//LUFA/Drivers/USB/LowLevel/Endpoint.c **** }
 196               		.loc 1 99 0
 197 0022 0895      		ret
 198               	.L11:
  93:../LUFA_100807//LUFA/Drivers/USB/LowLevel/Endpoint.c **** 			  return;
 199               		.loc 1 93 0
 200 0024 8EB3      		in r24,0x1e
 201 0026 8823      		tst r24
 202 0028 01F0      		breq .L6
 203               	.L8:
 204               	.LBB201:
 205               	.LBB202:
 405:../LUFA_100807//LUFA/Drivers/USB/LowLevel/Endpoint.h **** 			}
 206               		.loc 2 405 0
 207 002a 8091 E800 		lds r24,232
 208               	.LBE202:
 209               	.LBE201:
  91:../LUFA_100807//LUFA/Drivers/USB/LowLevel/Endpoint.c **** 		{
 210               		.loc 1 91 0
 211 002e 80FF      		sbrs r24,0
 212 0030 00C0      		rjmp .L11
 213               	.LBB203:
 214               	.LBB200:
 456:../LUFA_100807//LUFA/Drivers/USB/LowLevel/Endpoint.h **** 				#endif
 215               		.loc 2 456 0
 216 0032 8091 E800 		lds r24,232
 217 0036 8E7F      		andi r24,lo8(-2)
 218 0038 00C0      		rjmp .L19
 219               	.LBE200:
 220               	.LBE203:
 221               		.cfi_endproc
 222               	.LFE67:
 224               		.section	.text.Endpoint_Write_Control_Stream_LE,"ax",@progbits
 225               	.global	Endpoint_Write_Control_Stream_LE
 227               	Endpoint_Write_Control_Stream_LE:
 228               	.LFB68:
 229               		.file 3 "../LUFA_100807//LUFA/Drivers/USB/LowLevel/Template/Template_Endpoint_Control_W.c"
   1:../LUFA_100807//LUFA/Drivers/USB/LowLevel/Template/Template_Endpoint_Control_W.c **** uint8_t TEMPLATE_FUNC_NAME (const void* Buffer,
   2:../LUFA_100807//LUFA/Drivers/USB/LowLevel/Template/Template_Endpoint_Control_W.c ****                             uint16_t Length)
   3:../LUFA_100807//LUFA/Drivers/USB/LowLevel/Template/Template_Endpoint_Control_W.c **** {
 230               		.loc 3 3 0
 231               		.cfi_startproc
 232               	.LVL11:
 233               	/* prologue: function */
 234               	/* frame size = 0 */
 235               	/* stack size = 0 */
 236               	.L__stack_usage = 0
   4:../LUFA_100807//LUFA/Drivers/USB/LowLevel/Template/Template_Endpoint_Control_W.c **** 	uint8_t* DataStream     = ((uint8_t*)Buffer + TEMPLATE_BUFFER_OFFSET(Length));
   5:../LUFA_100807//LUFA/Drivers/USB/LowLevel/Template/Template_Endpoint_Control_W.c **** 	bool     LastPacketFull = false;
   6:../LUFA_100807//LUFA/Drivers/USB/LowLevel/Template/Template_Endpoint_Control_W.c **** 	
   7:../LUFA_100807//LUFA/Drivers/USB/LowLevel/Template/Template_Endpoint_Control_W.c **** 	if (Length > USB_ControlRequest.wLength)
 237               		.loc 3 7 0
 238 0000 2091 0000 		lds r18,USB_ControlRequest+6
 239 0004 3091 0000 		lds r19,USB_ControlRequest+6+1
 240 0008 2617      		cp r18,r22
 241 000a 3707      		cpc r19,r23
 242 000c 00F0      		brlo .L32
   8:../LUFA_100807//LUFA/Drivers/USB/LowLevel/Template/Template_Endpoint_Control_W.c **** 	  Length = USB_ControlRequest.wLength;
   9:../LUFA_100807//LUFA/Drivers/USB/LowLevel/Template/Template_Endpoint_Control_W.c **** 	else if (!(Length))
 243               		.loc 3 9 0
 244 000e 6115      		cp r22,__zero_reg__
 245 0010 7105      		cpc r23,__zero_reg__
 246 0012 01F4      		brne .L21
 247               	.LBB204:
 248               	.LBB205:
 456:../LUFA_100807//LUFA/Drivers/USB/LowLevel/Endpoint.h **** 				#endif
 249               		.loc 2 456 0
 250 0014 2091 E800 		lds r18,232
 251 0018 2E7F      		andi r18,lo8(-2)
 252 001a 2093 E800 		sts 232,r18
 253               	.LVL12:
 254               	.L21:
 255               	.LBE205:
 256               	.LBE204:
 257 001e 30E0      		ldi r19,0
 258               	.LVL13:
 259               	.L25:
  10:../LUFA_100807//LUFA/Drivers/USB/LowLevel/Template/Template_Endpoint_Control_W.c **** 	  Endpoint_ClearIN();
  11:../LUFA_100807//LUFA/Drivers/USB/LowLevel/Template/Template_Endpoint_Control_W.c **** 
  12:../LUFA_100807//LUFA/Drivers/USB/LowLevel/Template/Template_Endpoint_Control_W.c **** 	while (Length || LastPacketFull)
 260               		.loc 3 12 0
 261 0020 6115      		cp r22,__zero_reg__
 262 0022 7105      		cpc r23,__zero_reg__
 263 0024 01F4      		brne .L30
 264               		.loc 3 12 0 is_stmt 0 discriminator 1
 265 0026 3111      		cpse r19,__zero_reg__
 266 0028 00C0      		rjmp .L30
 267               	.LVL14:
 268               	.L43:
 269               	.LBB206:
 270               	.LBB207:
 417:../LUFA_100807//LUFA/Drivers/USB/LowLevel/Endpoint.h **** 			}
 271               		.loc 2 417 0 is_stmt 1
 272 002a 8091 E800 		lds r24,232
 273               	.LBE207:
 274               	.LBE206:
  13:../LUFA_100807//LUFA/Drivers/USB/LowLevel/Template/Template_Endpoint_Control_W.c **** 	{
  14:../LUFA_100807//LUFA/Drivers/USB/LowLevel/Template/Template_Endpoint_Control_W.c **** 		if (Endpoint_IsSETUPReceived())
  15:../LUFA_100807//LUFA/Drivers/USB/LowLevel/Template/Template_Endpoint_Control_W.c **** 		  return ENDPOINT_RWCSTREAM_HostAborted;
  16:../LUFA_100807//LUFA/Drivers/USB/LowLevel/Template/Template_Endpoint_Control_W.c **** 
  17:../LUFA_100807//LUFA/Drivers/USB/LowLevel/Template/Template_Endpoint_Control_W.c **** 		if (Endpoint_IsOUTReceived())
  18:../LUFA_100807//LUFA/Drivers/USB/LowLevel/Template/Template_Endpoint_Control_W.c **** 		  break;
  19:../LUFA_100807//LUFA/Drivers/USB/LowLevel/Template/Template_Endpoint_Control_W.c **** 		
  20:../LUFA_100807//LUFA/Drivers/USB/LowLevel/Template/Template_Endpoint_Control_W.c **** 		if (USB_DeviceState == DEVICE_STATE_Unattached)
  21:../LUFA_100807//LUFA/Drivers/USB/LowLevel/Template/Template_Endpoint_Control_W.c **** 		  return ENDPOINT_RWCSTREAM_DeviceDisconnected;
  22:../LUFA_100807//LUFA/Drivers/USB/LowLevel/Template/Template_Endpoint_Control_W.c **** 		else if (USB_DeviceState == DEVICE_STATE_Suspended)
  23:../LUFA_100807//LUFA/Drivers/USB/LowLevel/Template/Template_Endpoint_Control_W.c **** 		  return ENDPOINT_RWCSTREAM_BusSuspended;
  24:../LUFA_100807//LUFA/Drivers/USB/LowLevel/Template/Template_Endpoint_Control_W.c **** 		  
  25:../LUFA_100807//LUFA/Drivers/USB/LowLevel/Template/Template_Endpoint_Control_W.c **** 		if (Endpoint_IsINReady())
  26:../LUFA_100807//LUFA/Drivers/USB/LowLevel/Template/Template_Endpoint_Control_W.c **** 		{
  27:../LUFA_100807//LUFA/Drivers/USB/LowLevel/Template/Template_Endpoint_Control_W.c **** 			uint8_t BytesInEndpoint = Endpoint_BytesInEndpoint();
  28:../LUFA_100807//LUFA/Drivers/USB/LowLevel/Template/Template_Endpoint_Control_W.c **** 		
  29:../LUFA_100807//LUFA/Drivers/USB/LowLevel/Template/Template_Endpoint_Control_W.c **** 			while (Length && (BytesInEndpoint < USB_ControlEndpointSize))
  30:../LUFA_100807//LUFA/Drivers/USB/LowLevel/Template/Template_Endpoint_Control_W.c **** 			{
  31:../LUFA_100807//LUFA/Drivers/USB/LowLevel/Template/Template_Endpoint_Control_W.c **** 				TEMPLATE_TRANSFER_BYTE(DataStream);
  32:../LUFA_100807//LUFA/Drivers/USB/LowLevel/Template/Template_Endpoint_Control_W.c **** 				Length--;
  33:../LUFA_100807//LUFA/Drivers/USB/LowLevel/Template/Template_Endpoint_Control_W.c **** 				BytesInEndpoint++;
  34:../LUFA_100807//LUFA/Drivers/USB/LowLevel/Template/Template_Endpoint_Control_W.c **** 			}
  35:../LUFA_100807//LUFA/Drivers/USB/LowLevel/Template/Template_Endpoint_Control_W.c **** 			
  36:../LUFA_100807//LUFA/Drivers/USB/LowLevel/Template/Template_Endpoint_Control_W.c **** 			LastPacketFull = (BytesInEndpoint == USB_ControlEndpointSize);
  37:../LUFA_100807//LUFA/Drivers/USB/LowLevel/Template/Template_Endpoint_Control_W.c **** 			Endpoint_ClearIN();
  38:../LUFA_100807//LUFA/Drivers/USB/LowLevel/Template/Template_Endpoint_Control_W.c **** 		}
  39:../LUFA_100807//LUFA/Drivers/USB/LowLevel/Template/Template_Endpoint_Control_W.c **** 	}
  40:../LUFA_100807//LUFA/Drivers/USB/LowLevel/Template/Template_Endpoint_Control_W.c **** 	
  41:../LUFA_100807//LUFA/Drivers/USB/LowLevel/Template/Template_Endpoint_Control_W.c **** 	while (!(Endpoint_IsOUTReceived()))
 275               		.loc 3 41 0
 276 002e 82FF      		sbrs r24,2
 277 0030 00C0      		rjmp .L31
  42:../LUFA_100807//LUFA/Drivers/USB/LowLevel/Template/Template_Endpoint_Control_W.c **** 	{
  43:../LUFA_100807//LUFA/Drivers/USB/LowLevel/Template/Template_Endpoint_Control_W.c **** 		if (USB_DeviceState == DEVICE_STATE_Unattached)
  44:../LUFA_100807//LUFA/Drivers/USB/LowLevel/Template/Template_Endpoint_Control_W.c **** 		  return ENDPOINT_RWCSTREAM_DeviceDisconnected;
  45:../LUFA_100807//LUFA/Drivers/USB/LowLevel/Template/Template_Endpoint_Control_W.c **** 		else if (USB_DeviceState == DEVICE_STATE_Suspended)
  46:../LUFA_100807//LUFA/Drivers/USB/LowLevel/Template/Template_Endpoint_Control_W.c **** 		  return ENDPOINT_RWCSTREAM_BusSuspended;
  47:../LUFA_100807//LUFA/Drivers/USB/LowLevel/Template/Template_Endpoint_Control_W.c **** 	}
  48:../LUFA_100807//LUFA/Drivers/USB/LowLevel/Template/Template_Endpoint_Control_W.c **** 
  49:../LUFA_100807//LUFA/Drivers/USB/LowLevel/Template/Template_Endpoint_Control_W.c **** 	return ENDPOINT_RWCSTREAM_NoError;
 278               		.loc 3 49 0
 279 0032 80E0      		ldi r24,0
 280 0034 0895      		ret
 281               	.LVL15:
 282               	.L32:
 283 0036 B901      		movw r22,r18
 284               	.LVL16:
 285 0038 00C0      		rjmp .L21
 286               	.LVL17:
 287               	.L30:
 288               	.LBB208:
 289               	.LBB209:
 429:../LUFA_100807//LUFA/Drivers/USB/LowLevel/Endpoint.h **** 			}
 290               		.loc 2 429 0
 291 003a 2091 E800 		lds r18,232
 292               	.LBE209:
 293               	.LBE208:
  14:../LUFA_100807//LUFA/Drivers/USB/LowLevel/Template/Template_Endpoint_Control_W.c **** 		  return ENDPOINT_RWCSTREAM_HostAborted;
 294               		.loc 3 14 0
 295 003e 23FD      		sbrc r18,3
 296 0040 00C0      		rjmp .L33
 297               	.LBB210:
 298               	.LBB211:
 417:../LUFA_100807//LUFA/Drivers/USB/LowLevel/Endpoint.h **** 			}
 299               		.loc 2 417 0
 300 0042 2091 E800 		lds r18,232
 301               	.LBE211:
 302               	.LBE210:
  17:../LUFA_100807//LUFA/Drivers/USB/LowLevel/Template/Template_Endpoint_Control_W.c **** 		  break;
 303               		.loc 3 17 0
 304 0046 22FD      		sbrc r18,2
 305 0048 00C0      		rjmp .L43
  20:../LUFA_100807//LUFA/Drivers/USB/LowLevel/Template/Template_Endpoint_Control_W.c **** 		  return ENDPOINT_RWCSTREAM_DeviceDisconnected;
 306               		.loc 3 20 0
 307 004a 2EB3      		in r18,0x1e
 308 004c 2223      		tst r18
 309 004e 01F0      		breq .L36
  22:../LUFA_100807//LUFA/Drivers/USB/LowLevel/Template/Template_Endpoint_Control_W.c **** 		  return ENDPOINT_RWCSTREAM_BusSuspended;
 310               		.loc 3 22 0
 311 0050 2EB3      		in r18,0x1e
 312 0052 2530      		cpi r18,lo8(5)
 313 0054 01F0      		breq .L37
 314               	.LBB212:
 315               	.LBB213:
 405:../LUFA_100807//LUFA/Drivers/USB/LowLevel/Endpoint.h **** 			}
 316               		.loc 2 405 0
 317 0056 2091 E800 		lds r18,232
 318               	.LBE213:
 319               	.LBE212:
  25:../LUFA_100807//LUFA/Drivers/USB/LowLevel/Template/Template_Endpoint_Control_W.c **** 		{
 320               		.loc 3 25 0
 321 005a 20FF      		sbrs r18,0
 322 005c 00C0      		rjmp .L25
 323               	.LBB214:
 324               	.LBB215:
 325               	.LBB216:
 266:../LUFA_100807//LUFA/Drivers/USB/LowLevel/Endpoint.h **** 				#endif
 326               		.loc 2 266 0
 327 005e 2091 F200 		lds r18,242
 328               	.LVL18:
 329 0062 FC01      		movw r30,r24
 330               	.LVL19:
 331               	.L26:
 332 0064 CF01      		movw r24,r30
 333               	.LVL20:
 334               	.LBE216:
 335               	.LBE215:
  29:../LUFA_100807//LUFA/Drivers/USB/LowLevel/Template/Template_Endpoint_Control_W.c **** 			{
 336               		.loc 3 29 0
 337 0066 6115      		cp r22,__zero_reg__
 338 0068 7105      		cpc r23,__zero_reg__
 339 006a 01F0      		breq .L27
  29:../LUFA_100807//LUFA/Drivers/USB/LowLevel/Template/Template_Endpoint_Control_W.c **** 			{
 340               		.loc 3 29 0 is_stmt 0 discriminator 1
 341 006c 2032      		cpi r18,lo8(32)
 342 006e 00F0      		brlo .L28
 343               	.L27:
  36:../LUFA_100807//LUFA/Drivers/USB/LowLevel/Template/Template_Endpoint_Control_W.c **** 			Endpoint_ClearIN();
 344               		.loc 3 36 0 is_stmt 1
 345 0070 31E0      		ldi r19,lo8(1)
 346               	.LVL21:
 347 0072 2032      		cpi r18,lo8(32)
 348 0074 01F0      		breq .L29
 349 0076 30E0      		ldi r19,0
 350               	.L29:
 351               	.LVL22:
 352               	.LBB217:
 353               	.LBB218:
 456:../LUFA_100807//LUFA/Drivers/USB/LowLevel/Endpoint.h **** 				#endif
 354               		.loc 2 456 0
 355 0078 2091 E800 		lds r18,232
 356               	.LVL23:
 357 007c 2E7F      		andi r18,lo8(-2)
 358 007e 2093 E800 		sts 232,r18
 359 0082 00C0      		rjmp .L25
 360               	.LVL24:
 361               	.L28:
 362               	.LBE218:
 363               	.LBE217:
  31:../LUFA_100807//LUFA/Drivers/USB/LowLevel/Template/Template_Endpoint_Control_W.c **** 				Length--;
 364               		.loc 3 31 0
 365 0084 8191      		ld r24,Z+
 366               	.LVL25:
 367               	.LBB219:
 368               	.LBB220:
 562:../LUFA_100807//LUFA/Drivers/USB/LowLevel/Endpoint.h **** 			}
 369               		.loc 2 562 0
 370 0086 8093 F100 		sts 241,r24
 371               	.LVL26:
 372               	.LBE220:
 373               	.LBE219:
  32:../LUFA_100807//LUFA/Drivers/USB/LowLevel/Template/Template_Endpoint_Control_W.c **** 				BytesInEndpoint++;
 374               		.loc 3 32 0
 375 008a 6150      		subi r22,1
 376 008c 7109      		sbc r23,__zero_reg__
 377               	.LVL27:
  33:../LUFA_100807//LUFA/Drivers/USB/LowLevel/Template/Template_Endpoint_Control_W.c **** 			}
 378               		.loc 3 33 0
 379 008e 2F5F      		subi r18,lo8(-(1))
 380               	.LVL28:
 381 0090 00C0      		rjmp .L26
 382               	.LVL29:
 383               	.L31:
 384               	.LBE214:
  43:../LUFA_100807//LUFA/Drivers/USB/LowLevel/Template/Template_Endpoint_Control_W.c **** 		  return ENDPOINT_RWCSTREAM_DeviceDisconnected;
 385               		.loc 3 43 0
 386 0092 8EB3      		in r24,0x1e
 387 0094 8823      		tst r24
 388 0096 01F0      		breq .L36
  45:../LUFA_100807//LUFA/Drivers/USB/LowLevel/Template/Template_Endpoint_Control_W.c **** 		  return ENDPOINT_RWCSTREAM_BusSuspended;
 389               		.loc 3 45 0
 390 0098 8EB3      		in r24,0x1e
 391 009a 8530      		cpi r24,lo8(5)
 392 009c 01F4      		brne .L43
 393               	.L37:
  23:../LUFA_100807//LUFA/Drivers/USB/LowLevel/Template/Template_Endpoint_Control_W.c **** 		  
 394               		.loc 3 23 0
 395 009e 83E0      		ldi r24,lo8(3)
 396               	/* epilogue start */
  50:../LUFA_100807//LUFA/Drivers/USB/LowLevel/Template/Template_Endpoint_Control_W.c **** }
 397               		.loc 3 50 0
 398 00a0 0895      		ret
 399               	.LVL30:
 400               	.L33:
  15:../LUFA_100807//LUFA/Drivers/USB/LowLevel/Template/Template_Endpoint_Control_W.c **** 
 401               		.loc 3 15 0
 402 00a2 81E0      		ldi r24,lo8(1)
 403               	.LVL31:
 404 00a4 0895      		ret
 405               	.L36:
  21:../LUFA_100807//LUFA/Drivers/USB/LowLevel/Template/Template_Endpoint_Control_W.c **** 		else if (USB_DeviceState == DEVICE_STATE_Suspended)
 406               		.loc 3 21 0
 407 00a6 82E0      		ldi r24,lo8(2)
 408 00a8 0895      		ret
 409               		.cfi_endproc
 410               	.LFE68:
 412               		.section	.text.Endpoint_Write_Control_PStream_LE,"ax",@progbits
 413               	.global	Endpoint_Write_Control_PStream_LE
 415               	Endpoint_Write_Control_PStream_LE:
 416               	.LFB69:
   3:../LUFA_100807//LUFA/Drivers/USB/LowLevel/Template/Template_Endpoint_Control_W.c **** 	uint8_t* DataStream     = ((uint8_t*)Buffer + TEMPLATE_BUFFER_OFFSET(Length));
 417               		.loc 3 3 0
 418               		.cfi_startproc
 419               	.LVL32:
 420               	/* prologue: function */
 421               	/* frame size = 0 */
 422               	/* stack size = 0 */
 423               	.L__stack_usage = 0
   7:../LUFA_100807//LUFA/Drivers/USB/LowLevel/Template/Template_Endpoint_Control_W.c **** 	  Length = USB_ControlRequest.wLength;
 424               		.loc 3 7 0
 425 0000 2091 0000 		lds r18,USB_ControlRequest+6
 426 0004 3091 0000 		lds r19,USB_ControlRequest+6+1
 427 0008 2617      		cp r18,r22
 428 000a 3707      		cpc r19,r23
 429 000c 00F0      		brlo .L59
   9:../LUFA_100807//LUFA/Drivers/USB/LowLevel/Template/Template_Endpoint_Control_W.c **** 	  Endpoint_ClearIN();
 430               		.loc 3 9 0
 431 000e 6115      		cp r22,__zero_reg__
 432 0010 7105      		cpc r23,__zero_reg__
 433 0012 01F4      		brne .L48
 434               	.LBB221:
 435               	.LBB222:
 456:../LUFA_100807//LUFA/Drivers/USB/LowLevel/Endpoint.h **** 				#endif
 436               		.loc 2 456 0
 437 0014 2091 E800 		lds r18,232
 438 0018 2E7F      		andi r18,lo8(-2)
 439 001a 2093 E800 		sts 232,r18
 440               	.LVL33:
 441               	.L48:
 442               	.LBE222:
 443               	.LBE221:
 444 001e 30E0      		ldi r19,0
 445               	.LVL34:
 446               	.L52:
  12:../LUFA_100807//LUFA/Drivers/USB/LowLevel/Template/Template_Endpoint_Control_W.c **** 	{
 447               		.loc 3 12 0
 448 0020 6115      		cp r22,__zero_reg__
 449 0022 7105      		cpc r23,__zero_reg__
 450 0024 01F4      		brne .L57
  12:../LUFA_100807//LUFA/Drivers/USB/LowLevel/Template/Template_Endpoint_Control_W.c **** 	{
 451               		.loc 3 12 0 is_stmt 0 discriminator 1
 452 0026 3111      		cpse r19,__zero_reg__
 453 0028 00C0      		rjmp .L57
 454               	.LVL35:
 455               	.L70:
 456               	.LBB223:
 457               	.LBB224:
 417:../LUFA_100807//LUFA/Drivers/USB/LowLevel/Endpoint.h **** 			}
 458               		.loc 2 417 0 is_stmt 1
 459 002a 8091 E800 		lds r24,232
 460               	.LBE224:
 461               	.LBE223:
  41:../LUFA_100807//LUFA/Drivers/USB/LowLevel/Template/Template_Endpoint_Control_W.c **** 	{
 462               		.loc 3 41 0
 463 002e 82FF      		sbrs r24,2
 464 0030 00C0      		rjmp .L58
  49:../LUFA_100807//LUFA/Drivers/USB/LowLevel/Template/Template_Endpoint_Control_W.c **** }
 465               		.loc 3 49 0
 466 0032 80E0      		ldi r24,0
 467 0034 0895      		ret
 468               	.LVL36:
 469               	.L59:
 470 0036 B901      		movw r22,r18
 471               	.LVL37:
 472 0038 00C0      		rjmp .L48
 473               	.LVL38:
 474               	.L57:
 475               	.LBB225:
 476               	.LBB226:
 429:../LUFA_100807//LUFA/Drivers/USB/LowLevel/Endpoint.h **** 			}
 477               		.loc 2 429 0
 478 003a 2091 E800 		lds r18,232
 479               	.LBE226:
 480               	.LBE225:
  14:../LUFA_100807//LUFA/Drivers/USB/LowLevel/Template/Template_Endpoint_Control_W.c **** 		  return ENDPOINT_RWCSTREAM_HostAborted;
 481               		.loc 3 14 0
 482 003e 23FD      		sbrc r18,3
 483 0040 00C0      		rjmp .L60
 484               	.LBB227:
 485               	.LBB228:
 417:../LUFA_100807//LUFA/Drivers/USB/LowLevel/Endpoint.h **** 			}
 486               		.loc 2 417 0
 487 0042 2091 E800 		lds r18,232
 488               	.LBE228:
 489               	.LBE227:
  17:../LUFA_100807//LUFA/Drivers/USB/LowLevel/Template/Template_Endpoint_Control_W.c **** 		  break;
 490               		.loc 3 17 0
 491 0046 22FD      		sbrc r18,2
 492 0048 00C0      		rjmp .L70
  20:../LUFA_100807//LUFA/Drivers/USB/LowLevel/Template/Template_Endpoint_Control_W.c **** 		  return ENDPOINT_RWCSTREAM_DeviceDisconnected;
 493               		.loc 3 20 0
 494 004a 2EB3      		in r18,0x1e
 495 004c 2223      		tst r18
 496 004e 01F0      		breq .L63
  22:../LUFA_100807//LUFA/Drivers/USB/LowLevel/Template/Template_Endpoint_Control_W.c **** 		  return ENDPOINT_RWCSTREAM_BusSuspended;
 497               		.loc 3 22 0
 498 0050 2EB3      		in r18,0x1e
 499 0052 2530      		cpi r18,lo8(5)
 500 0054 01F0      		breq .L64
 501               	.LBB229:
 502               	.LBB230:
 405:../LUFA_100807//LUFA/Drivers/USB/LowLevel/Endpoint.h **** 			}
 503               		.loc 2 405 0
 504 0056 2091 E800 		lds r18,232
 505               	.LBE230:
 506               	.LBE229:
  25:../LUFA_100807//LUFA/Drivers/USB/LowLevel/Template/Template_Endpoint_Control_W.c **** 		{
 507               		.loc 3 25 0
 508 005a 20FF      		sbrs r18,0
 509 005c 00C0      		rjmp .L52
 510               	.LBB231:
 511               	.LBB232:
 512               	.LBB233:
 266:../LUFA_100807//LUFA/Drivers/USB/LowLevel/Endpoint.h **** 				#endif
 513               		.loc 2 266 0
 514 005e 2091 F200 		lds r18,242
 515               	.LVL39:
 516 0062 FC01      		movw r30,r24
 517               	.LVL40:
 518               	.L53:
 519 0064 CF01      		movw r24,r30
 520               	.LVL41:
 521               	.LBE233:
 522               	.LBE232:
  29:../LUFA_100807//LUFA/Drivers/USB/LowLevel/Template/Template_Endpoint_Control_W.c **** 			{
 523               		.loc 3 29 0
 524 0066 6115      		cp r22,__zero_reg__
 525 0068 7105      		cpc r23,__zero_reg__
 526 006a 01F0      		breq .L54
  29:../LUFA_100807//LUFA/Drivers/USB/LowLevel/Template/Template_Endpoint_Control_W.c **** 			{
 527               		.loc 3 29 0 is_stmt 0 discriminator 1
 528 006c 2032      		cpi r18,lo8(32)
 529 006e 00F0      		brlo .L55
 530               	.L54:
  36:../LUFA_100807//LUFA/Drivers/USB/LowLevel/Template/Template_Endpoint_Control_W.c **** 			Endpoint_ClearIN();
 531               		.loc 3 36 0 is_stmt 1
 532 0070 31E0      		ldi r19,lo8(1)
 533               	.LVL42:
 534 0072 2032      		cpi r18,lo8(32)
 535 0074 01F0      		breq .L56
 536 0076 30E0      		ldi r19,0
 537               	.L56:
 538               	.LVL43:
 539               	.LBB234:
 540               	.LBB235:
 456:../LUFA_100807//LUFA/Drivers/USB/LowLevel/Endpoint.h **** 				#endif
 541               		.loc 2 456 0
 542 0078 2091 E800 		lds r18,232
 543               	.LVL44:
 544 007c 2E7F      		andi r18,lo8(-2)
 545 007e 2093 E800 		sts 232,r18
 546 0082 00C0      		rjmp .L52
 547               	.LVL45:
 548               	.L55:
 549               	.LBE235:
 550               	.LBE234:
 551               	.LBB236:
  31:../LUFA_100807//LUFA/Drivers/USB/LowLevel/Template/Template_Endpoint_Control_W.c **** 				Length--;
 552               		.loc 3 31 0
 553               	/* #APP */
 554               	 ;  31 "../LUFA_100807//LUFA/Drivers/USB/LowLevel/Template/Template_Endpoint_Control_W.c" 1
 555 0084 8491      		lpm r24, Z
 556               		
 557               	 ;  0 "" 2
 558               	.LVL46:
 559               	/* #NOAPP */
 560               	.LBE236:
 561               	.LBB237:
 562               	.LBB238:
 562:../LUFA_100807//LUFA/Drivers/USB/LowLevel/Endpoint.h **** 			}
 563               		.loc 2 562 0
 564 0086 8093 F100 		sts 241,r24
 565               	.LVL47:
 566               	.LBE238:
 567               	.LBE237:
  32:../LUFA_100807//LUFA/Drivers/USB/LowLevel/Template/Template_Endpoint_Control_W.c **** 				BytesInEndpoint++;
 568               		.loc 3 32 0
 569 008a 6150      		subi r22,1
 570 008c 7109      		sbc r23,__zero_reg__
 571               	.LVL48:
  33:../LUFA_100807//LUFA/Drivers/USB/LowLevel/Template/Template_Endpoint_Control_W.c **** 			}
 572               		.loc 3 33 0
 573 008e 2F5F      		subi r18,lo8(-(1))
 574               	.LVL49:
 575 0090 3196      		adiw r30,1
 576               	.LVL50:
 577 0092 00C0      		rjmp .L53
 578               	.LVL51:
 579               	.L58:
 580               	.LBE231:
  43:../LUFA_100807//LUFA/Drivers/USB/LowLevel/Template/Template_Endpoint_Control_W.c **** 		  return ENDPOINT_RWCSTREAM_DeviceDisconnected;
 581               		.loc 3 43 0
 582 0094 8EB3      		in r24,0x1e
 583 0096 8823      		tst r24
 584 0098 01F0      		breq .L63
  45:../LUFA_100807//LUFA/Drivers/USB/LowLevel/Template/Template_Endpoint_Control_W.c **** 		  return ENDPOINT_RWCSTREAM_BusSuspended;
 585               		.loc 3 45 0
 586 009a 8EB3      		in r24,0x1e
 587 009c 8530      		cpi r24,lo8(5)
 588 009e 01F4      		brne .L70
 589               	.L64:
  23:../LUFA_100807//LUFA/Drivers/USB/LowLevel/Template/Template_Endpoint_Control_W.c **** 		  
 590               		.loc 3 23 0
 591 00a0 83E0      		ldi r24,lo8(3)
 592               	/* epilogue start */
 593               		.loc 3 50 0
 594 00a2 0895      		ret
 595               	.LVL52:
 596               	.L60:
  15:../LUFA_100807//LUFA/Drivers/USB/LowLevel/Template/Template_Endpoint_Control_W.c **** 
 597               		.loc 3 15 0
 598 00a4 81E0      		ldi r24,lo8(1)
 599               	.LVL53:
 600 00a6 0895      		ret
 601               	.L63:
  21:../LUFA_100807//LUFA/Drivers/USB/LowLevel/Template/Template_Endpoint_Control_W.c **** 		else if (USB_DeviceState == DEVICE_STATE_Suspended)
 602               		.loc 3 21 0
 603 00a8 82E0      		ldi r24,lo8(2)
 604 00aa 0895      		ret
 605               		.cfi_endproc
 606               	.LFE69:
 608               		.section	.text.Endpoint_Write_Control_EStream_LE,"ax",@progbits
 609               	.global	Endpoint_Write_Control_EStream_LE
 611               	Endpoint_Write_Control_EStream_LE:
 612               	.LFB70:
   3:../LUFA_100807//LUFA/Drivers/USB/LowLevel/Template/Template_Endpoint_Control_W.c **** 	uint8_t* DataStream     = ((uint8_t*)Buffer + TEMPLATE_BUFFER_OFFSET(Length));
 613               		.loc 3 3 0
 614               		.cfi_startproc
 615               	.LVL54:
 616 0000 EF92      		push r14
 617               	.LCFI0:
 618               		.cfi_def_cfa_offset 3
 619               		.cfi_offset 14, -2
 620 0002 FF92      		push r15
 621               	.LCFI1:
 622               		.cfi_def_cfa_offset 4
 623               		.cfi_offset 15, -3
 624 0004 1F93      		push r17
 625               	.LCFI2:
 626               		.cfi_def_cfa_offset 5
 627               		.cfi_offset 17, -4
 628 0006 CF93      		push r28
 629               	.LCFI3:
 630               		.cfi_def_cfa_offset 6
 631               		.cfi_offset 28, -5
 632 0008 DF93      		push r29
 633               	.LCFI4:
 634               		.cfi_def_cfa_offset 7
 635               		.cfi_offset 29, -6
 636               	/* prologue: function */
 637               	/* frame size = 0 */
 638               	/* stack size = 5 */
 639               	.L__stack_usage = 5
 640 000a 9C01      		movw r18,r24
 641 000c EB01      		movw r28,r22
 642               	.LVL55:
   7:../LUFA_100807//LUFA/Drivers/USB/LowLevel/Template/Template_Endpoint_Control_W.c **** 	  Length = USB_ControlRequest.wLength;
 643               		.loc 3 7 0
 644 000e 8091 0000 		lds r24,USB_ControlRequest+6
 645 0012 9091 0000 		lds r25,USB_ControlRequest+6+1
 646               	.LVL56:
 647 0016 8617      		cp r24,r22
 648 0018 9707      		cpc r25,r23
 649 001a 00F0      		brlo .L86
   9:../LUFA_100807//LUFA/Drivers/USB/LowLevel/Template/Template_Endpoint_Control_W.c **** 	  Endpoint_ClearIN();
 650               		.loc 3 9 0
 651 001c 2097      		sbiw r28,0
 652 001e 01F4      		brne .L75
 653               	.LBB239:
 654               	.LBB240:
 456:../LUFA_100807//LUFA/Drivers/USB/LowLevel/Endpoint.h **** 				#endif
 655               		.loc 2 456 0
 656 0020 8091 E800 		lds r24,232
 657 0024 8E7F      		andi r24,lo8(-2)
 658 0026 8093 E800 		sts 232,r24
 659               	.L75:
 660               	.LBE240:
 661               	.LBE239:
 662               	.LBB241:
  31:../LUFA_100807//LUFA/Drivers/USB/LowLevel/Template/Template_Endpoint_Control_W.c **** 				Length--;
 663               		.loc 3 31 0
 664 002a 90E0      		ldi r25,0
 665               	.LVL57:
 666               	.L79:
 667               	.LBE241:
  12:../LUFA_100807//LUFA/Drivers/USB/LowLevel/Template/Template_Endpoint_Control_W.c **** 	{
 668               		.loc 3 12 0
 669 002c 2097      		sbiw r28,0
 670 002e 01F4      		brne .L84
  12:../LUFA_100807//LUFA/Drivers/USB/LowLevel/Template/Template_Endpoint_Control_W.c **** 	{
 671               		.loc 3 12 0 is_stmt 0 discriminator 1
 672 0030 9111      		cpse r25,__zero_reg__
 673 0032 00C0      		rjmp .L84
 674               	.L97:
 675               	.LBB248:
 676               	.LBB249:
 417:../LUFA_100807//LUFA/Drivers/USB/LowLevel/Endpoint.h **** 			}
 677               		.loc 2 417 0 is_stmt 1
 678 0034 8091 E800 		lds r24,232
 679               	.LBE249:
 680               	.LBE248:
  41:../LUFA_100807//LUFA/Drivers/USB/LowLevel/Template/Template_Endpoint_Control_W.c **** 	{
 681               		.loc 3 41 0
 682 0038 82FF      		sbrs r24,2
 683 003a 00C0      		rjmp .L85
  49:../LUFA_100807//LUFA/Drivers/USB/LowLevel/Template/Template_Endpoint_Control_W.c **** }
 684               		.loc 3 49 0
 685 003c 80E0      		ldi r24,0
 686               	.L74:
 687               	/* epilogue start */
 688               		.loc 3 50 0
 689 003e DF91      		pop r29
 690 0040 CF91      		pop r28
 691               	.LVL58:
 692 0042 1F91      		pop r17
 693 0044 FF90      		pop r15
 694 0046 EF90      		pop r14
 695 0048 0895      		ret
 696               	.LVL59:
 697               	.L86:
 698 004a EC01      		movw r28,r24
 699 004c 00C0      		rjmp .L75
 700               	.LVL60:
 701               	.L84:
 702               	.LBB250:
 703               	.LBB251:
 429:../LUFA_100807//LUFA/Drivers/USB/LowLevel/Endpoint.h **** 			}
 704               		.loc 2 429 0
 705 004e 8091 E800 		lds r24,232
 706               	.LBE251:
 707               	.LBE250:
  14:../LUFA_100807//LUFA/Drivers/USB/LowLevel/Template/Template_Endpoint_Control_W.c **** 		  return ENDPOINT_RWCSTREAM_HostAborted;
 708               		.loc 3 14 0
 709 0052 83FD      		sbrc r24,3
 710 0054 00C0      		rjmp .L87
 711               	.LBB252:
 712               	.LBB253:
 417:../LUFA_100807//LUFA/Drivers/USB/LowLevel/Endpoint.h **** 			}
 713               		.loc 2 417 0
 714 0056 8091 E800 		lds r24,232
 715               	.LBE253:
 716               	.LBE252:
  17:../LUFA_100807//LUFA/Drivers/USB/LowLevel/Template/Template_Endpoint_Control_W.c **** 		  break;
 717               		.loc 3 17 0
 718 005a 82FD      		sbrc r24,2
 719 005c 00C0      		rjmp .L97
  20:../LUFA_100807//LUFA/Drivers/USB/LowLevel/Template/Template_Endpoint_Control_W.c **** 		  return ENDPOINT_RWCSTREAM_DeviceDisconnected;
 720               		.loc 3 20 0
 721 005e 8EB3      		in r24,0x1e
 722 0060 8823      		tst r24
 723 0062 01F0      		breq .L90
  22:../LUFA_100807//LUFA/Drivers/USB/LowLevel/Template/Template_Endpoint_Control_W.c **** 		  return ENDPOINT_RWCSTREAM_BusSuspended;
 724               		.loc 3 22 0
 725 0064 8EB3      		in r24,0x1e
 726 0066 8530      		cpi r24,lo8(5)
 727 0068 01F0      		breq .L91
 728               	.LBB254:
 729               	.LBB255:
 405:../LUFA_100807//LUFA/Drivers/USB/LowLevel/Endpoint.h **** 			}
 730               		.loc 2 405 0
 731 006a 8091 E800 		lds r24,232
 732               	.LBE255:
 733               	.LBE254:
  25:../LUFA_100807//LUFA/Drivers/USB/LowLevel/Template/Template_Endpoint_Control_W.c **** 		{
 734               		.loc 3 25 0
 735 006e 80FF      		sbrs r24,0
 736 0070 00C0      		rjmp .L79
 737               	.LBB256:
 738               	.LBB242:
 739               	.LBB243:
 266:../LUFA_100807//LUFA/Drivers/USB/LowLevel/Endpoint.h **** 				#endif
 740               		.loc 2 266 0
 741 0072 1091 F200 		lds r17,242
 742               	.LVL61:
 743               	.L80:
 744               	.LBE243:
 745               	.LBE242:
  29:../LUFA_100807//LUFA/Drivers/USB/LowLevel/Template/Template_Endpoint_Control_W.c **** 			{
 746               		.loc 3 29 0
 747 0076 2097      		sbiw r28,0
 748 0078 01F0      		breq .L81
  29:../LUFA_100807//LUFA/Drivers/USB/LowLevel/Template/Template_Endpoint_Control_W.c **** 			{
 749               		.loc 3 29 0 is_stmt 0 discriminator 1
 750 007a 1032      		cpi r17,lo8(32)
 751 007c 00F0      		brlo .L82
 752               	.L81:
  36:../LUFA_100807//LUFA/Drivers/USB/LowLevel/Template/Template_Endpoint_Control_W.c **** 			Endpoint_ClearIN();
 753               		.loc 3 36 0 is_stmt 1
 754 007e 91E0      		ldi r25,lo8(1)
 755 0080 1032      		cpi r17,lo8(32)
 756 0082 01F0      		breq .L83
 757 0084 90E0      		ldi r25,0
 758               	.L83:
 759               	.LVL62:
 760               	.LBB244:
 761               	.LBB245:
 456:../LUFA_100807//LUFA/Drivers/USB/LowLevel/Endpoint.h **** 				#endif
 762               		.loc 2 456 0
 763 0086 8091 E800 		lds r24,232
 764 008a 8E7F      		andi r24,lo8(-2)
 765 008c 8093 E800 		sts 232,r24
 766 0090 00C0      		rjmp .L79
 767               	.LVL63:
 768               	.L82:
 769               	.LBE245:
 770               	.LBE244:
  31:../LUFA_100807//LUFA/Drivers/USB/LowLevel/Template/Template_Endpoint_Control_W.c **** 				Length--;
 771               		.loc 3 31 0
 772 0092 7901      		movw r14,r18
 773 0094 8FEF      		ldi r24,-1
 774 0096 E81A      		sub r14,r24
 775 0098 F80A      		sbc r15,r24
 776               	.LVL64:
 777 009a C901      		movw r24,r18
 778 009c 0E94 0000 		call eeprom_read_byte
 779               	.LVL65:
 780               	.LBB246:
 781               	.LBB247:
 562:../LUFA_100807//LUFA/Drivers/USB/LowLevel/Endpoint.h **** 			}
 782               		.loc 2 562 0
 783 00a0 8093 F100 		sts 241,r24
 784               	.LVL66:
 785               	.LBE247:
 786               	.LBE246:
  32:../LUFA_100807//LUFA/Drivers/USB/LowLevel/Template/Template_Endpoint_Control_W.c **** 				BytesInEndpoint++;
 787               		.loc 3 32 0
 788 00a4 2197      		sbiw r28,1
 789               	.LVL67:
  33:../LUFA_100807//LUFA/Drivers/USB/LowLevel/Template/Template_Endpoint_Control_W.c **** 			}
 790               		.loc 3 33 0
 791 00a6 1F5F      		subi r17,lo8(-(1))
 792               	.LVL68:
  31:../LUFA_100807//LUFA/Drivers/USB/LowLevel/Template/Template_Endpoint_Control_W.c **** 				Length--;
 793               		.loc 3 31 0
 794 00a8 9701      		movw r18,r14
 795 00aa 00C0      		rjmp .L80
 796               	.LVL69:
 797               	.L85:
 798               	.LBE256:
  43:../LUFA_100807//LUFA/Drivers/USB/LowLevel/Template/Template_Endpoint_Control_W.c **** 		  return ENDPOINT_RWCSTREAM_DeviceDisconnected;
 799               		.loc 3 43 0
 800 00ac 8EB3      		in r24,0x1e
 801 00ae 8823      		tst r24
 802 00b0 01F0      		breq .L90
  45:../LUFA_100807//LUFA/Drivers/USB/LowLevel/Template/Template_Endpoint_Control_W.c **** 		  return ENDPOINT_RWCSTREAM_BusSuspended;
 803               		.loc 3 45 0
 804 00b2 8EB3      		in r24,0x1e
 805 00b4 8530      		cpi r24,lo8(5)
 806 00b6 01F0      		breq .+2
 807 00b8 00C0      		rjmp .L97
 808               	.L91:
  23:../LUFA_100807//LUFA/Drivers/USB/LowLevel/Template/Template_Endpoint_Control_W.c **** 		  
 809               		.loc 3 23 0
 810 00ba 83E0      		ldi r24,lo8(3)
 811 00bc 00C0      		rjmp .L74
 812               	.L87:
  15:../LUFA_100807//LUFA/Drivers/USB/LowLevel/Template/Template_Endpoint_Control_W.c **** 
 813               		.loc 3 15 0
 814 00be 81E0      		ldi r24,lo8(1)
 815 00c0 00C0      		rjmp .L74
 816               	.L90:
  21:../LUFA_100807//LUFA/Drivers/USB/LowLevel/Template/Template_Endpoint_Control_W.c **** 		else if (USB_DeviceState == DEVICE_STATE_Suspended)
 817               		.loc 3 21 0
 818 00c2 82E0      		ldi r24,lo8(2)
 819 00c4 00C0      		rjmp .L74
 820               		.cfi_endproc
 821               	.LFE70:
 823               		.section	.text.Endpoint_Write_Control_Stream_BE,"ax",@progbits
 824               	.global	Endpoint_Write_Control_Stream_BE
 826               	Endpoint_Write_Control_Stream_BE:
 827               	.LFB71:
   3:../LUFA_100807//LUFA/Drivers/USB/LowLevel/Template/Template_Endpoint_Control_W.c **** 	uint8_t* DataStream     = ((uint8_t*)Buffer + TEMPLATE_BUFFER_OFFSET(Length));
 828               		.loc 3 3 0
 829               		.cfi_startproc
 830               	.LVL70:
 831               	/* prologue: function */
 832               	/* frame size = 0 */
 833               	/* stack size = 0 */
 834               	.L__stack_usage = 0
   4:../LUFA_100807//LUFA/Drivers/USB/LowLevel/Template/Template_Endpoint_Control_W.c **** 	bool     LastPacketFull = false;
 835               		.loc 3 4 0
 836 0000 9B01      		movw r18,r22
 837 0002 2150      		subi r18,1
 838 0004 3109      		sbc r19,__zero_reg__
 839 0006 820F      		add r24,r18
 840 0008 931F      		adc r25,r19
 841               	.LVL71:
   7:../LUFA_100807//LUFA/Drivers/USB/LowLevel/Template/Template_Endpoint_Control_W.c **** 	  Length = USB_ControlRequest.wLength;
 842               		.loc 3 7 0
 843 000a 2091 0000 		lds r18,USB_ControlRequest+6
 844 000e 3091 0000 		lds r19,USB_ControlRequest+6+1
 845 0012 2617      		cp r18,r22
 846 0014 3707      		cpc r19,r23
 847 0016 00F0      		brlo .L113
   9:../LUFA_100807//LUFA/Drivers/USB/LowLevel/Template/Template_Endpoint_Control_W.c **** 	  Endpoint_ClearIN();
 848               		.loc 3 9 0
 849 0018 6115      		cp r22,__zero_reg__
 850 001a 7105      		cpc r23,__zero_reg__
 851 001c 01F4      		brne .L102
 852               	.LBB257:
 853               	.LBB258:
 456:../LUFA_100807//LUFA/Drivers/USB/LowLevel/Endpoint.h **** 				#endif
 854               		.loc 2 456 0
 855 001e 2091 E800 		lds r18,232
 856 0022 2E7F      		andi r18,lo8(-2)
 857 0024 2093 E800 		sts 232,r18
 858               	.LVL72:
 859               	.L102:
 860               	.LBE258:
 861               	.LBE257:
 862 0028 30E0      		ldi r19,0
 863               	.LVL73:
 864               	.L106:
  12:../LUFA_100807//LUFA/Drivers/USB/LowLevel/Template/Template_Endpoint_Control_W.c **** 	{
 865               		.loc 3 12 0
 866 002a 6115      		cp r22,__zero_reg__
 867 002c 7105      		cpc r23,__zero_reg__
 868 002e 01F4      		brne .L111
  12:../LUFA_100807//LUFA/Drivers/USB/LowLevel/Template/Template_Endpoint_Control_W.c **** 	{
 869               		.loc 3 12 0 is_stmt 0 discriminator 1
 870 0030 3111      		cpse r19,__zero_reg__
 871 0032 00C0      		rjmp .L111
 872               	.LVL74:
 873               	.L124:
 874               	.LBB259:
 875               	.LBB260:
 417:../LUFA_100807//LUFA/Drivers/USB/LowLevel/Endpoint.h **** 			}
 876               		.loc 2 417 0 is_stmt 1
 877 0034 8091 E800 		lds r24,232
 878               	.LBE260:
 879               	.LBE259:
  41:../LUFA_100807//LUFA/Drivers/USB/LowLevel/Template/Template_Endpoint_Control_W.c **** 	{
 880               		.loc 3 41 0
 881 0038 82FF      		sbrs r24,2
 882 003a 00C0      		rjmp .L112
  49:../LUFA_100807//LUFA/Drivers/USB/LowLevel/Template/Template_Endpoint_Control_W.c **** }
 883               		.loc 3 49 0
 884 003c 80E0      		ldi r24,0
 885 003e 0895      		ret
 886               	.LVL75:
 887               	.L113:
 888 0040 B901      		movw r22,r18
 889               	.LVL76:
 890 0042 00C0      		rjmp .L102
 891               	.LVL77:
 892               	.L111:
 893               	.LBB261:
 894               	.LBB262:
 429:../LUFA_100807//LUFA/Drivers/USB/LowLevel/Endpoint.h **** 			}
 895               		.loc 2 429 0
 896 0044 2091 E800 		lds r18,232
 897               	.LBE262:
 898               	.LBE261:
  14:../LUFA_100807//LUFA/Drivers/USB/LowLevel/Template/Template_Endpoint_Control_W.c **** 		  return ENDPOINT_RWCSTREAM_HostAborted;
 899               		.loc 3 14 0
 900 0048 23FD      		sbrc r18,3
 901 004a 00C0      		rjmp .L114
 902               	.LBB263:
 903               	.LBB264:
 417:../LUFA_100807//LUFA/Drivers/USB/LowLevel/Endpoint.h **** 			}
 904               		.loc 2 417 0
 905 004c 2091 E800 		lds r18,232
 906               	.LBE264:
 907               	.LBE263:
  17:../LUFA_100807//LUFA/Drivers/USB/LowLevel/Template/Template_Endpoint_Control_W.c **** 		  break;
 908               		.loc 3 17 0
 909 0050 22FD      		sbrc r18,2
 910 0052 00C0      		rjmp .L124
  20:../LUFA_100807//LUFA/Drivers/USB/LowLevel/Template/Template_Endpoint_Control_W.c **** 		  return ENDPOINT_RWCSTREAM_DeviceDisconnected;
 911               		.loc 3 20 0
 912 0054 2EB3      		in r18,0x1e
 913 0056 2223      		tst r18
 914 0058 01F0      		breq .L117
  22:../LUFA_100807//LUFA/Drivers/USB/LowLevel/Template/Template_Endpoint_Control_W.c **** 		  return ENDPOINT_RWCSTREAM_BusSuspended;
 915               		.loc 3 22 0
 916 005a 2EB3      		in r18,0x1e
 917 005c 2530      		cpi r18,lo8(5)
 918 005e 01F0      		breq .L118
 919               	.LBB265:
 920               	.LBB266:
 405:../LUFA_100807//LUFA/Drivers/USB/LowLevel/Endpoint.h **** 			}
 921               		.loc 2 405 0
 922 0060 2091 E800 		lds r18,232
 923               	.LBE266:
 924               	.LBE265:
  25:../LUFA_100807//LUFA/Drivers/USB/LowLevel/Template/Template_Endpoint_Control_W.c **** 		{
 925               		.loc 3 25 0
 926 0064 20FF      		sbrs r18,0
 927 0066 00C0      		rjmp .L106
 928               	.LBB267:
 929               	.LBB268:
 930               	.LBB269:
 266:../LUFA_100807//LUFA/Drivers/USB/LowLevel/Endpoint.h **** 				#endif
 931               		.loc 2 266 0
 932 0068 2091 F200 		lds r18,242
 933               	.LVL78:
 934               	.L107:
 935               	.LBE269:
 936               	.LBE268:
  29:../LUFA_100807//LUFA/Drivers/USB/LowLevel/Template/Template_Endpoint_Control_W.c **** 			{
 937               		.loc 3 29 0
 938 006c 6115      		cp r22,__zero_reg__
 939 006e 7105      		cpc r23,__zero_reg__
 940 0070 01F0      		breq .L108
  29:../LUFA_100807//LUFA/Drivers/USB/LowLevel/Template/Template_Endpoint_Control_W.c **** 			{
 941               		.loc 3 29 0 is_stmt 0 discriminator 1
 942 0072 2032      		cpi r18,lo8(32)
 943 0074 00F0      		brlo .L109
 944               	.L108:
  36:../LUFA_100807//LUFA/Drivers/USB/LowLevel/Template/Template_Endpoint_Control_W.c **** 			Endpoint_ClearIN();
 945               		.loc 3 36 0 is_stmt 1
 946 0076 31E0      		ldi r19,lo8(1)
 947 0078 2032      		cpi r18,lo8(32)
 948 007a 01F0      		breq .L110
 949 007c 30E0      		ldi r19,0
 950               	.L110:
 951               	.LVL79:
 952               	.LBB270:
 953               	.LBB271:
 456:../LUFA_100807//LUFA/Drivers/USB/LowLevel/Endpoint.h **** 				#endif
 954               		.loc 2 456 0
 955 007e 2091 E800 		lds r18,232
 956               	.LVL80:
 957 0082 2E7F      		andi r18,lo8(-2)
 958 0084 2093 E800 		sts 232,r18
 959 0088 00C0      		rjmp .L106
 960               	.LVL81:
 961               	.L109:
 962               	.LBE271:
 963               	.LBE270:
  31:../LUFA_100807//LUFA/Drivers/USB/LowLevel/Template/Template_Endpoint_Control_W.c **** 				Length--;
 964               		.loc 3 31 0
 965 008a 0197      		sbiw r24,1
 966               	.LVL82:
 967 008c FC01      		movw r30,r24
 968 008e 3181      		ldd r19,Z+1
 969               	.LVL83:
 970               	.LBB272:
 971               	.LBB273:
 562:../LUFA_100807//LUFA/Drivers/USB/LowLevel/Endpoint.h **** 			}
 972               		.loc 2 562 0
 973 0090 3093 F100 		sts 241,r19
 974               	.LVL84:
 975               	.LBE273:
 976               	.LBE272:
  32:../LUFA_100807//LUFA/Drivers/USB/LowLevel/Template/Template_Endpoint_Control_W.c **** 				BytesInEndpoint++;
 977               		.loc 3 32 0
 978 0094 6150      		subi r22,1
 979 0096 7109      		sbc r23,__zero_reg__
 980               	.LVL85:
  33:../LUFA_100807//LUFA/Drivers/USB/LowLevel/Template/Template_Endpoint_Control_W.c **** 			}
 981               		.loc 3 33 0
 982 0098 2F5F      		subi r18,lo8(-(1))
 983               	.LVL86:
 984 009a 00C0      		rjmp .L107
 985               	.LVL87:
 986               	.L112:
 987               	.LBE267:
  43:../LUFA_100807//LUFA/Drivers/USB/LowLevel/Template/Template_Endpoint_Control_W.c **** 		  return ENDPOINT_RWCSTREAM_DeviceDisconnected;
 988               		.loc 3 43 0
 989 009c 8EB3      		in r24,0x1e
 990 009e 8823      		tst r24
 991 00a0 01F0      		breq .L117
  45:../LUFA_100807//LUFA/Drivers/USB/LowLevel/Template/Template_Endpoint_Control_W.c **** 		  return ENDPOINT_RWCSTREAM_BusSuspended;
 992               		.loc 3 45 0
 993 00a2 8EB3      		in r24,0x1e
 994 00a4 8530      		cpi r24,lo8(5)
 995 00a6 01F4      		brne .L124
 996               	.L118:
  23:../LUFA_100807//LUFA/Drivers/USB/LowLevel/Template/Template_Endpoint_Control_W.c **** 		  
 997               		.loc 3 23 0
 998 00a8 83E0      		ldi r24,lo8(3)
 999               	/* epilogue start */
 1000               		.loc 3 50 0
 1001 00aa 0895      		ret
 1002               	.LVL88:
 1003               	.L114:
  15:../LUFA_100807//LUFA/Drivers/USB/LowLevel/Template/Template_Endpoint_Control_W.c **** 
 1004               		.loc 3 15 0
 1005 00ac 81E0      		ldi r24,lo8(1)
 1006               	.LVL89:
 1007 00ae 0895      		ret
 1008               	.L117:
  21:../LUFA_100807//LUFA/Drivers/USB/LowLevel/Template/Template_Endpoint_Control_W.c **** 		else if (USB_DeviceState == DEVICE_STATE_Suspended)
 1009               		.loc 3 21 0
 1010 00b0 82E0      		ldi r24,lo8(2)
 1011 00b2 0895      		ret
 1012               		.cfi_endproc
 1013               	.LFE71:
 1015               		.section	.text.Endpoint_Write_Control_PStream_BE,"ax",@progbits
 1016               	.global	Endpoint_Write_Control_PStream_BE
 1018               	Endpoint_Write_Control_PStream_BE:
 1019               	.LFB72:
   3:../LUFA_100807//LUFA/Drivers/USB/LowLevel/Template/Template_Endpoint_Control_W.c **** 	uint8_t* DataStream     = ((uint8_t*)Buffer + TEMPLATE_BUFFER_OFFSET(Length));
 1020               		.loc 3 3 0
 1021               		.cfi_startproc
 1022               	.LVL90:
 1023               	/* prologue: function */
 1024               	/* frame size = 0 */
 1025               	/* stack size = 0 */
 1026               	.L__stack_usage = 0
   4:../LUFA_100807//LUFA/Drivers/USB/LowLevel/Template/Template_Endpoint_Control_W.c **** 	bool     LastPacketFull = false;
 1027               		.loc 3 4 0
 1028 0000 9B01      		movw r18,r22
 1029 0002 2150      		subi r18,1
 1030 0004 3109      		sbc r19,__zero_reg__
 1031 0006 820F      		add r24,r18
 1032 0008 931F      		adc r25,r19
 1033               	.LVL91:
   7:../LUFA_100807//LUFA/Drivers/USB/LowLevel/Template/Template_Endpoint_Control_W.c **** 	  Length = USB_ControlRequest.wLength;
 1034               		.loc 3 7 0
 1035 000a 2091 0000 		lds r18,USB_ControlRequest+6
 1036 000e 3091 0000 		lds r19,USB_ControlRequest+6+1
 1037 0012 2617      		cp r18,r22
 1038 0014 3707      		cpc r19,r23
 1039 0016 00F0      		brlo .L140
   9:../LUFA_100807//LUFA/Drivers/USB/LowLevel/Template/Template_Endpoint_Control_W.c **** 	  Endpoint_ClearIN();
 1040               		.loc 3 9 0
 1041 0018 6115      		cp r22,__zero_reg__
 1042 001a 7105      		cpc r23,__zero_reg__
 1043 001c 01F4      		brne .L129
 1044               	.LBB274:
 1045               	.LBB275:
 456:../LUFA_100807//LUFA/Drivers/USB/LowLevel/Endpoint.h **** 				#endif
 1046               		.loc 2 456 0
 1047 001e 2091 E800 		lds r18,232
 1048 0022 2E7F      		andi r18,lo8(-2)
 1049 0024 2093 E800 		sts 232,r18
 1050               	.LVL92:
 1051               	.L129:
 1052               	.LBE275:
 1053               	.LBE274:
 1054 0028 30E0      		ldi r19,0
 1055               	.LVL93:
 1056               	.L133:
  12:../LUFA_100807//LUFA/Drivers/USB/LowLevel/Template/Template_Endpoint_Control_W.c **** 	{
 1057               		.loc 3 12 0
 1058 002a 6115      		cp r22,__zero_reg__
 1059 002c 7105      		cpc r23,__zero_reg__
 1060 002e 01F4      		brne .L138
  12:../LUFA_100807//LUFA/Drivers/USB/LowLevel/Template/Template_Endpoint_Control_W.c **** 	{
 1061               		.loc 3 12 0 is_stmt 0 discriminator 1
 1062 0030 3111      		cpse r19,__zero_reg__
 1063 0032 00C0      		rjmp .L138
 1064               	.LVL94:
 1065               	.L151:
 1066               	.LBB276:
 1067               	.LBB277:
 417:../LUFA_100807//LUFA/Drivers/USB/LowLevel/Endpoint.h **** 			}
 1068               		.loc 2 417 0 is_stmt 1
 1069 0034 8091 E800 		lds r24,232
 1070               	.LBE277:
 1071               	.LBE276:
  41:../LUFA_100807//LUFA/Drivers/USB/LowLevel/Template/Template_Endpoint_Control_W.c **** 	{
 1072               		.loc 3 41 0
 1073 0038 82FF      		sbrs r24,2
 1074 003a 00C0      		rjmp .L139
  49:../LUFA_100807//LUFA/Drivers/USB/LowLevel/Template/Template_Endpoint_Control_W.c **** }
 1075               		.loc 3 49 0
 1076 003c 80E0      		ldi r24,0
 1077 003e 0895      		ret
 1078               	.LVL95:
 1079               	.L140:
 1080 0040 B901      		movw r22,r18
 1081               	.LVL96:
 1082 0042 00C0      		rjmp .L129
 1083               	.LVL97:
 1084               	.L138:
 1085               	.LBB278:
 1086               	.LBB279:
 429:../LUFA_100807//LUFA/Drivers/USB/LowLevel/Endpoint.h **** 			}
 1087               		.loc 2 429 0
 1088 0044 2091 E800 		lds r18,232
 1089               	.LBE279:
 1090               	.LBE278:
  14:../LUFA_100807//LUFA/Drivers/USB/LowLevel/Template/Template_Endpoint_Control_W.c **** 		  return ENDPOINT_RWCSTREAM_HostAborted;
 1091               		.loc 3 14 0
 1092 0048 23FD      		sbrc r18,3
 1093 004a 00C0      		rjmp .L141
 1094               	.LBB280:
 1095               	.LBB281:
 417:../LUFA_100807//LUFA/Drivers/USB/LowLevel/Endpoint.h **** 			}
 1096               		.loc 2 417 0
 1097 004c 2091 E800 		lds r18,232
 1098               	.LBE281:
 1099               	.LBE280:
  17:../LUFA_100807//LUFA/Drivers/USB/LowLevel/Template/Template_Endpoint_Control_W.c **** 		  break;
 1100               		.loc 3 17 0
 1101 0050 22FD      		sbrc r18,2
 1102 0052 00C0      		rjmp .L151
  20:../LUFA_100807//LUFA/Drivers/USB/LowLevel/Template/Template_Endpoint_Control_W.c **** 		  return ENDPOINT_RWCSTREAM_DeviceDisconnected;
 1103               		.loc 3 20 0
 1104 0054 2EB3      		in r18,0x1e
 1105 0056 2223      		tst r18
 1106 0058 01F0      		breq .L144
  22:../LUFA_100807//LUFA/Drivers/USB/LowLevel/Template/Template_Endpoint_Control_W.c **** 		  return ENDPOINT_RWCSTREAM_BusSuspended;
 1107               		.loc 3 22 0
 1108 005a 2EB3      		in r18,0x1e
 1109 005c 2530      		cpi r18,lo8(5)
 1110 005e 01F0      		breq .L145
 1111               	.LBB282:
 1112               	.LBB283:
 405:../LUFA_100807//LUFA/Drivers/USB/LowLevel/Endpoint.h **** 			}
 1113               		.loc 2 405 0
 1114 0060 2091 E800 		lds r18,232
 1115               	.LBE283:
 1116               	.LBE282:
  25:../LUFA_100807//LUFA/Drivers/USB/LowLevel/Template/Template_Endpoint_Control_W.c **** 		{
 1117               		.loc 3 25 0
 1118 0064 20FF      		sbrs r18,0
 1119 0066 00C0      		rjmp .L133
 1120               	.LBB284:
 1121               	.LBB285:
 1122               	.LBB286:
 266:../LUFA_100807//LUFA/Drivers/USB/LowLevel/Endpoint.h **** 				#endif
 1123               		.loc 2 266 0
 1124 0068 2091 F200 		lds r18,242
 1125               	.LVL98:
 1126 006c FC01      		movw r30,r24
 1127               	.LVL99:
 1128               	.L134:
 1129 006e CF01      		movw r24,r30
 1130               	.LVL100:
 1131               	.LBE286:
 1132               	.LBE285:
  29:../LUFA_100807//LUFA/Drivers/USB/LowLevel/Template/Template_Endpoint_Control_W.c **** 			{
 1133               		.loc 3 29 0
 1134 0070 6115      		cp r22,__zero_reg__
 1135 0072 7105      		cpc r23,__zero_reg__
 1136 0074 01F0      		breq .L135
  29:../LUFA_100807//LUFA/Drivers/USB/LowLevel/Template/Template_Endpoint_Control_W.c **** 			{
 1137               		.loc 3 29 0 is_stmt 0 discriminator 1
 1138 0076 2032      		cpi r18,lo8(32)
 1139 0078 00F0      		brlo .L136
 1140               	.L135:
  36:../LUFA_100807//LUFA/Drivers/USB/LowLevel/Template/Template_Endpoint_Control_W.c **** 			Endpoint_ClearIN();
 1141               		.loc 3 36 0 is_stmt 1
 1142 007a 31E0      		ldi r19,lo8(1)
 1143               	.LVL101:
 1144 007c 2032      		cpi r18,lo8(32)
 1145 007e 01F0      		breq .L137
 1146 0080 30E0      		ldi r19,0
 1147               	.L137:
 1148               	.LVL102:
 1149               	.LBB287:
 1150               	.LBB288:
 456:../LUFA_100807//LUFA/Drivers/USB/LowLevel/Endpoint.h **** 				#endif
 1151               		.loc 2 456 0
 1152 0082 2091 E800 		lds r18,232
 1153               	.LVL103:
 1154 0086 2E7F      		andi r18,lo8(-2)
 1155 0088 2093 E800 		sts 232,r18
 1156 008c 00C0      		rjmp .L133
 1157               	.LVL104:
 1158               	.L136:
 1159               	.LBE288:
 1160               	.LBE287:
 1161               	.LBB289:
  31:../LUFA_100807//LUFA/Drivers/USB/LowLevel/Template/Template_Endpoint_Control_W.c **** 				Length--;
 1162               		.loc 3 31 0
 1163               	/* #APP */
 1164               	 ;  31 "../LUFA_100807//LUFA/Drivers/USB/LowLevel/Template/Template_Endpoint_Control_W.c" 1
 1165 008e 8491      		lpm r24, Z
 1166               		
 1167               	 ;  0 "" 2
 1168               	.LVL105:
 1169               	/* #NOAPP */
 1170               	.LBE289:
 1171               	.LBB290:
 1172               	.LBB291:
 562:../LUFA_100807//LUFA/Drivers/USB/LowLevel/Endpoint.h **** 			}
 1173               		.loc 2 562 0
 1174 0090 8093 F100 		sts 241,r24
 1175               	.LVL106:
 1176               	.LBE291:
 1177               	.LBE290:
  32:../LUFA_100807//LUFA/Drivers/USB/LowLevel/Template/Template_Endpoint_Control_W.c **** 				BytesInEndpoint++;
 1178               		.loc 3 32 0
 1179 0094 6150      		subi r22,1
 1180 0096 7109      		sbc r23,__zero_reg__
 1181               	.LVL107:
  33:../LUFA_100807//LUFA/Drivers/USB/LowLevel/Template/Template_Endpoint_Control_W.c **** 			}
 1182               		.loc 3 33 0
 1183 0098 2F5F      		subi r18,lo8(-(1))
 1184               	.LVL108:
 1185 009a 3197      		sbiw r30,1
 1186               	.LVL109:
 1187 009c 00C0      		rjmp .L134
 1188               	.LVL110:
 1189               	.L139:
 1190               	.LBE284:
  43:../LUFA_100807//LUFA/Drivers/USB/LowLevel/Template/Template_Endpoint_Control_W.c **** 		  return ENDPOINT_RWCSTREAM_DeviceDisconnected;
 1191               		.loc 3 43 0
 1192 009e 8EB3      		in r24,0x1e
 1193 00a0 8823      		tst r24
 1194 00a2 01F0      		breq .L144
  45:../LUFA_100807//LUFA/Drivers/USB/LowLevel/Template/Template_Endpoint_Control_W.c **** 		  return ENDPOINT_RWCSTREAM_BusSuspended;
 1195               		.loc 3 45 0
 1196 00a4 8EB3      		in r24,0x1e
 1197 00a6 8530      		cpi r24,lo8(5)
 1198 00a8 01F4      		brne .L151
 1199               	.L145:
  23:../LUFA_100807//LUFA/Drivers/USB/LowLevel/Template/Template_Endpoint_Control_W.c **** 		  
 1200               		.loc 3 23 0
 1201 00aa 83E0      		ldi r24,lo8(3)
 1202               	/* epilogue start */
 1203               		.loc 3 50 0
 1204 00ac 0895      		ret
 1205               	.LVL111:
 1206               	.L141:
  15:../LUFA_100807//LUFA/Drivers/USB/LowLevel/Template/Template_Endpoint_Control_W.c **** 
 1207               		.loc 3 15 0
 1208 00ae 81E0      		ldi r24,lo8(1)
 1209               	.LVL112:
 1210 00b0 0895      		ret
 1211               	.L144:
  21:../LUFA_100807//LUFA/Drivers/USB/LowLevel/Template/Template_Endpoint_Control_W.c **** 		else if (USB_DeviceState == DEVICE_STATE_Suspended)
 1212               		.loc 3 21 0
 1213 00b2 82E0      		ldi r24,lo8(2)
 1214 00b4 0895      		ret
 1215               		.cfi_endproc
 1216               	.LFE72:
 1218               		.section	.text.Endpoint_Write_Control_EStream_BE,"ax",@progbits
 1219               	.global	Endpoint_Write_Control_EStream_BE
 1221               	Endpoint_Write_Control_EStream_BE:
 1222               	.LFB73:
   3:../LUFA_100807//LUFA/Drivers/USB/LowLevel/Template/Template_Endpoint_Control_W.c **** 	uint8_t* DataStream     = ((uint8_t*)Buffer + TEMPLATE_BUFFER_OFFSET(Length));
 1223               		.loc 3 3 0
 1224               		.cfi_startproc
 1225               	.LVL113:
 1226 0000 EF92      		push r14
 1227               	.LCFI5:
 1228               		.cfi_def_cfa_offset 3
 1229               		.cfi_offset 14, -2
 1230 0002 FF92      		push r15
 1231               	.LCFI6:
 1232               		.cfi_def_cfa_offset 4
 1233               		.cfi_offset 15, -3
 1234 0004 1F93      		push r17
 1235               	.LCFI7:
 1236               		.cfi_def_cfa_offset 5
 1237               		.cfi_offset 17, -4
 1238 0006 CF93      		push r28
 1239               	.LCFI8:
 1240               		.cfi_def_cfa_offset 6
 1241               		.cfi_offset 28, -5
 1242 0008 DF93      		push r29
 1243               	.LCFI9:
 1244               		.cfi_def_cfa_offset 7
 1245               		.cfi_offset 29, -6
 1246               	/* prologue: function */
 1247               	/* frame size = 0 */
 1248               	/* stack size = 5 */
 1249               	.L__stack_usage = 5
   4:../LUFA_100807//LUFA/Drivers/USB/LowLevel/Template/Template_Endpoint_Control_W.c **** 	bool     LastPacketFull = false;
 1250               		.loc 3 4 0
 1251 000a 9B01      		movw r18,r22
 1252 000c 2150      		subi r18,1
 1253 000e 3109      		sbc r19,__zero_reg__
 1254 0010 820F      		add r24,r18
 1255 0012 931F      		adc r25,r19
 1256               	.LVL114:
   7:../LUFA_100807//LUFA/Drivers/USB/LowLevel/Template/Template_Endpoint_Control_W.c **** 	  Length = USB_ControlRequest.wLength;
 1257               		.loc 3 7 0
 1258 0014 2091 0000 		lds r18,USB_ControlRequest+6
 1259 0018 3091 0000 		lds r19,USB_ControlRequest+6+1
 1260 001c 2617      		cp r18,r22
 1261 001e 3707      		cpc r19,r23
 1262 0020 00F0      		brlo .L167
   9:../LUFA_100807//LUFA/Drivers/USB/LowLevel/Template/Template_Endpoint_Control_W.c **** 	  Endpoint_ClearIN();
 1263               		.loc 3 9 0
 1264 0022 6115      		cp r22,__zero_reg__
 1265 0024 7105      		cpc r23,__zero_reg__
 1266 0026 01F4      		brne .L156
 1267               	.LBB292:
 1268               	.LBB293:
 456:../LUFA_100807//LUFA/Drivers/USB/LowLevel/Endpoint.h **** 				#endif
 1269               		.loc 2 456 0
 1270 0028 2091 E800 		lds r18,232
 1271 002c 2E7F      		andi r18,lo8(-2)
 1272 002e 2093 E800 		sts 232,r18
 1273               	.LVL115:
 1274               	.L156:
 1275               	.LBE293:
 1276               	.LBE292:
 1277               	.LBB294:
  29:../LUFA_100807//LUFA/Drivers/USB/LowLevel/Template/Template_Endpoint_Control_W.c **** 			{
 1278               		.loc 3 29 0
 1279 0032 20E0      		ldi r18,0
 1280               	.LVL116:
 1281               	.L160:
 1282               	.LBE294:
  12:../LUFA_100807//LUFA/Drivers/USB/LowLevel/Template/Template_Endpoint_Control_W.c **** 	{
 1283               		.loc 3 12 0
 1284 0034 6115      		cp r22,__zero_reg__
 1285 0036 7105      		cpc r23,__zero_reg__
 1286 0038 01F4      		brne .L165
  12:../LUFA_100807//LUFA/Drivers/USB/LowLevel/Template/Template_Endpoint_Control_W.c **** 	{
 1287               		.loc 3 12 0 is_stmt 0 discriminator 1
 1288 003a 2111      		cpse r18,__zero_reg__
 1289 003c 00C0      		rjmp .L165
 1290               	.LVL117:
 1291               	.L178:
 1292               	.LBB301:
 1293               	.LBB302:
 417:../LUFA_100807//LUFA/Drivers/USB/LowLevel/Endpoint.h **** 			}
 1294               		.loc 2 417 0 is_stmt 1
 1295 003e 8091 E800 		lds r24,232
 1296               	.LBE302:
 1297               	.LBE301:
  41:../LUFA_100807//LUFA/Drivers/USB/LowLevel/Template/Template_Endpoint_Control_W.c **** 	{
 1298               		.loc 3 41 0
 1299 0042 82FF      		sbrs r24,2
 1300 0044 00C0      		rjmp .L166
  49:../LUFA_100807//LUFA/Drivers/USB/LowLevel/Template/Template_Endpoint_Control_W.c **** }
 1301               		.loc 3 49 0
 1302 0046 80E0      		ldi r24,0
 1303               	.L155:
 1304               	/* epilogue start */
 1305               		.loc 3 50 0
 1306 0048 DF91      		pop r29
 1307 004a CF91      		pop r28
 1308 004c 1F91      		pop r17
 1309 004e FF90      		pop r15
 1310 0050 EF90      		pop r14
 1311 0052 0895      		ret
 1312               	.LVL118:
 1313               	.L167:
 1314 0054 B901      		movw r22,r18
 1315               	.LVL119:
 1316 0056 00C0      		rjmp .L156
 1317               	.LVL120:
 1318               	.L165:
 1319               	.LBB303:
 1320               	.LBB304:
 429:../LUFA_100807//LUFA/Drivers/USB/LowLevel/Endpoint.h **** 			}
 1321               		.loc 2 429 0
 1322 0058 3091 E800 		lds r19,232
 1323               	.LBE304:
 1324               	.LBE303:
  14:../LUFA_100807//LUFA/Drivers/USB/LowLevel/Template/Template_Endpoint_Control_W.c **** 		  return ENDPOINT_RWCSTREAM_HostAborted;
 1325               		.loc 3 14 0
 1326 005c 33FD      		sbrc r19,3
 1327 005e 00C0      		rjmp .L168
 1328               	.LBB305:
 1329               	.LBB306:
 417:../LUFA_100807//LUFA/Drivers/USB/LowLevel/Endpoint.h **** 			}
 1330               		.loc 2 417 0
 1331 0060 3091 E800 		lds r19,232
 1332               	.LBE306:
 1333               	.LBE305:
  17:../LUFA_100807//LUFA/Drivers/USB/LowLevel/Template/Template_Endpoint_Control_W.c **** 		  break;
 1334               		.loc 3 17 0
 1335 0064 32FD      		sbrc r19,2
 1336 0066 00C0      		rjmp .L178
  20:../LUFA_100807//LUFA/Drivers/USB/LowLevel/Template/Template_Endpoint_Control_W.c **** 		  return ENDPOINT_RWCSTREAM_DeviceDisconnected;
 1337               		.loc 3 20 0
 1338 0068 3EB3      		in r19,0x1e
 1339 006a 3323      		tst r19
 1340 006c 01F0      		breq .L171
  22:../LUFA_100807//LUFA/Drivers/USB/LowLevel/Template/Template_Endpoint_Control_W.c **** 		  return ENDPOINT_RWCSTREAM_BusSuspended;
 1341               		.loc 3 22 0
 1342 006e 3EB3      		in r19,0x1e
 1343 0070 3530      		cpi r19,lo8(5)
 1344 0072 01F0      		breq .L172
 1345               	.LBB307:
 1346               	.LBB308:
 405:../LUFA_100807//LUFA/Drivers/USB/LowLevel/Endpoint.h **** 			}
 1347               		.loc 2 405 0
 1348 0074 3091 E800 		lds r19,232
 1349               	.LBE308:
 1350               	.LBE307:
  25:../LUFA_100807//LUFA/Drivers/USB/LowLevel/Template/Template_Endpoint_Control_W.c **** 		{
 1351               		.loc 3 25 0
 1352 0078 30FF      		sbrs r19,0
 1353 007a 00C0      		rjmp .L160
 1354               	.LBB309:
 1355               	.LBB295:
 1356               	.LBB296:
 266:../LUFA_100807//LUFA/Drivers/USB/LowLevel/Endpoint.h **** 				#endif
 1357               		.loc 2 266 0
 1358 007c 1091 F200 		lds r17,242
 1359               	.LVL121:
 1360               	.LBE296:
 1361               	.LBE295:
  29:../LUFA_100807//LUFA/Drivers/USB/LowLevel/Template/Template_Endpoint_Control_W.c **** 			{
 1362               		.loc 3 29 0
 1363 0080 EB01      		movw r28,r22
 1364 0082 7C01      		movw r14,r24
 1365 0084 E61A      		sub r14,r22
 1366 0086 F70A      		sbc r15,r23
 1367               	.LVL122:
 1368               	.L161:
 1369 0088 C701      		movw r24,r14
 1370 008a 8C0F      		add r24,r28
 1371 008c 9D1F      		adc r25,r29
 1372               	.LVL123:
 1373 008e 2097      		sbiw r28,0
 1374 0090 01F0      		breq .L162
  29:../LUFA_100807//LUFA/Drivers/USB/LowLevel/Template/Template_Endpoint_Control_W.c **** 			{
 1375               		.loc 3 29 0 is_stmt 0 discriminator 1
 1376 0092 1032      		cpi r17,lo8(32)
 1377 0094 00F0      		brlo .L163
 1378               	.L162:
  36:../LUFA_100807//LUFA/Drivers/USB/LowLevel/Template/Template_Endpoint_Control_W.c **** 			Endpoint_ClearIN();
 1379               		.loc 3 36 0 is_stmt 1
 1380 0096 21E0      		ldi r18,lo8(1)
 1381 0098 1032      		cpi r17,lo8(32)
 1382 009a 01F0      		breq .L164
 1383 009c 20E0      		ldi r18,0
 1384               	.L164:
 1385               	.LVL124:
 1386               	.LBB297:
 1387               	.LBB298:
 456:../LUFA_100807//LUFA/Drivers/USB/LowLevel/Endpoint.h **** 				#endif
 1388               		.loc 2 456 0
 1389 009e 3091 E800 		lds r19,232
 1390 00a2 3E7F      		andi r19,lo8(-2)
 1391 00a4 3093 E800 		sts 232,r19
 1392 00a8 BE01      		movw r22,r28
 1393 00aa 00C0      		rjmp .L160
 1394               	.LVL125:
 1395               	.L163:
 1396               	.LBE298:
 1397               	.LBE297:
  31:../LUFA_100807//LUFA/Drivers/USB/LowLevel/Template/Template_Endpoint_Control_W.c **** 				Length--;
 1398               		.loc 3 31 0
 1399 00ac 0E94 0000 		call eeprom_read_byte
 1400               	.LVL126:
 1401               	.LBB299:
 1402               	.LBB300:
 562:../LUFA_100807//LUFA/Drivers/USB/LowLevel/Endpoint.h **** 			}
 1403               		.loc 2 562 0
 1404 00b0 8093 F100 		sts 241,r24
 1405               	.LVL127:
 1406               	.LBE300:
 1407               	.LBE299:
  32:../LUFA_100807//LUFA/Drivers/USB/LowLevel/Template/Template_Endpoint_Control_W.c **** 				BytesInEndpoint++;
 1408               		.loc 3 32 0
 1409 00b4 2197      		sbiw r28,1
 1410               	.LVL128:
  33:../LUFA_100807//LUFA/Drivers/USB/LowLevel/Template/Template_Endpoint_Control_W.c **** 			}
 1411               		.loc 3 33 0
 1412 00b6 1F5F      		subi r17,lo8(-(1))
 1413               	.LVL129:
 1414 00b8 00C0      		rjmp .L161
 1415               	.LVL130:
 1416               	.L166:
 1417               	.LBE309:
  43:../LUFA_100807//LUFA/Drivers/USB/LowLevel/Template/Template_Endpoint_Control_W.c **** 		  return ENDPOINT_RWCSTREAM_DeviceDisconnected;
 1418               		.loc 3 43 0
 1419 00ba 8EB3      		in r24,0x1e
 1420 00bc 8823      		tst r24
 1421 00be 01F0      		breq .L171
  45:../LUFA_100807//LUFA/Drivers/USB/LowLevel/Template/Template_Endpoint_Control_W.c **** 		  return ENDPOINT_RWCSTREAM_BusSuspended;
 1422               		.loc 3 45 0
 1423 00c0 8EB3      		in r24,0x1e
 1424 00c2 8530      		cpi r24,lo8(5)
 1425 00c4 01F0      		breq .+2
 1426 00c6 00C0      		rjmp .L178
 1427               	.L172:
  23:../LUFA_100807//LUFA/Drivers/USB/LowLevel/Template/Template_Endpoint_Control_W.c **** 		  
 1428               		.loc 3 23 0
 1429 00c8 83E0      		ldi r24,lo8(3)
 1430 00ca 00C0      		rjmp .L155
 1431               	.LVL131:
 1432               	.L168:
  15:../LUFA_100807//LUFA/Drivers/USB/LowLevel/Template/Template_Endpoint_Control_W.c **** 
 1433               		.loc 3 15 0
 1434 00cc 81E0      		ldi r24,lo8(1)
 1435               	.LVL132:
 1436 00ce 00C0      		rjmp .L155
 1437               	.L171:
  21:../LUFA_100807//LUFA/Drivers/USB/LowLevel/Template/Template_Endpoint_Control_W.c **** 		else if (USB_DeviceState == DEVICE_STATE_Suspended)
 1438               		.loc 3 21 0
 1439 00d0 82E0      		ldi r24,lo8(2)
 1440 00d2 00C0      		rjmp .L155
 1441               		.cfi_endproc
 1442               	.LFE73:
 1444               		.section	.text.Endpoint_Read_Control_Stream_LE,"ax",@progbits
 1445               	.global	Endpoint_Read_Control_Stream_LE
 1447               	Endpoint_Read_Control_Stream_LE:
 1448               	.LFB74:
 1449               		.file 4 "../LUFA_100807//LUFA/Drivers/USB/LowLevel/Template/Template_Endpoint_Control_R.c"
   1:../LUFA_100807//LUFA/Drivers/USB/LowLevel/Template/Template_Endpoint_Control_R.c **** uint8_t TEMPLATE_FUNC_NAME (void* Buffer,
   2:../LUFA_100807//LUFA/Drivers/USB/LowLevel/Template/Template_Endpoint_Control_R.c ****                             uint16_t Length)
   3:../LUFA_100807//LUFA/Drivers/USB/LowLevel/Template/Template_Endpoint_Control_R.c **** {
 1450               		.loc 4 3 0
 1451               		.cfi_startproc
 1452               	.LVL133:
 1453               	/* prologue: function */
 1454               	/* frame size = 0 */
 1455               	/* stack size = 0 */
 1456               	.L__stack_usage = 0
   4:../LUFA_100807//LUFA/Drivers/USB/LowLevel/Template/Template_Endpoint_Control_R.c **** 	uint8_t* DataStream = ((uint8_t*)Buffer + TEMPLATE_BUFFER_OFFSET(Length));
   5:../LUFA_100807//LUFA/Drivers/USB/LowLevel/Template/Template_Endpoint_Control_R.c **** 	
   6:../LUFA_100807//LUFA/Drivers/USB/LowLevel/Template/Template_Endpoint_Control_R.c **** 	if (!(Length))
 1457               		.loc 4 6 0
 1458 0000 6115      		cp r22,__zero_reg__
 1459 0002 7105      		cpc r23,__zero_reg__
 1460 0004 01F4      		brne .L187
 1461               	.LVL134:
 1462               	.L188:
 1463               	.LBB310:
 1464               	.LBB311:
 471:../LUFA_100807//LUFA/Drivers/USB/LowLevel/Endpoint.h **** 				#endif
 1465               		.loc 2 471 0
 1466 0006 2091 E800 		lds r18,232
 1467 000a 2B7F      		andi r18,lo8(-5)
 1468 000c 2093 E800 		sts 232,r18
 1469               	.L187:
 1470               	.LBE311:
 1471               	.LBE310:
   7:../LUFA_100807//LUFA/Drivers/USB/LowLevel/Template/Template_Endpoint_Control_R.c **** 	  Endpoint_ClearOUT();
   8:../LUFA_100807//LUFA/Drivers/USB/LowLevel/Template/Template_Endpoint_Control_R.c **** 	
   9:../LUFA_100807//LUFA/Drivers/USB/LowLevel/Template/Template_Endpoint_Control_R.c **** 	while (Length)
 1472               		.loc 4 9 0
 1473 0010 6115      		cp r22,__zero_reg__
 1474 0012 7105      		cpc r23,__zero_reg__
 1475 0014 01F4      		brne .L190
 1476               	.LVL135:
 1477               	.L191:
 1478               	.LBB312:
 1479               	.LBB313:
 405:../LUFA_100807//LUFA/Drivers/USB/LowLevel/Endpoint.h **** 			}
 1480               		.loc 2 405 0
 1481 0016 8091 E800 		lds r24,232
 1482               	.LBE313:
 1483               	.LBE312:
  10:../LUFA_100807//LUFA/Drivers/USB/LowLevel/Template/Template_Endpoint_Control_R.c **** 	{
  11:../LUFA_100807//LUFA/Drivers/USB/LowLevel/Template/Template_Endpoint_Control_R.c **** 		if (Endpoint_IsSETUPReceived())
  12:../LUFA_100807//LUFA/Drivers/USB/LowLevel/Template/Template_Endpoint_Control_R.c **** 		  return ENDPOINT_RWCSTREAM_HostAborted;
  13:../LUFA_100807//LUFA/Drivers/USB/LowLevel/Template/Template_Endpoint_Control_R.c **** 
  14:../LUFA_100807//LUFA/Drivers/USB/LowLevel/Template/Template_Endpoint_Control_R.c **** 		if (USB_DeviceState == DEVICE_STATE_Unattached)
  15:../LUFA_100807//LUFA/Drivers/USB/LowLevel/Template/Template_Endpoint_Control_R.c **** 		  return ENDPOINT_RWCSTREAM_DeviceDisconnected;
  16:../LUFA_100807//LUFA/Drivers/USB/LowLevel/Template/Template_Endpoint_Control_R.c **** 		else if (USB_DeviceState == DEVICE_STATE_Suspended)
  17:../LUFA_100807//LUFA/Drivers/USB/LowLevel/Template/Template_Endpoint_Control_R.c **** 		  return ENDPOINT_RWCSTREAM_BusSuspended;
  18:../LUFA_100807//LUFA/Drivers/USB/LowLevel/Template/Template_Endpoint_Control_R.c **** 		  
  19:../LUFA_100807//LUFA/Drivers/USB/LowLevel/Template/Template_Endpoint_Control_R.c **** 		if (Endpoint_IsOUTReceived())
  20:../LUFA_100807//LUFA/Drivers/USB/LowLevel/Template/Template_Endpoint_Control_R.c **** 		{
  21:../LUFA_100807//LUFA/Drivers/USB/LowLevel/Template/Template_Endpoint_Control_R.c **** 			while (Length && Endpoint_BytesInEndpoint())
  22:../LUFA_100807//LUFA/Drivers/USB/LowLevel/Template/Template_Endpoint_Control_R.c **** 			{
  23:../LUFA_100807//LUFA/Drivers/USB/LowLevel/Template/Template_Endpoint_Control_R.c **** 				TEMPLATE_TRANSFER_BYTE(DataStream);
  24:../LUFA_100807//LUFA/Drivers/USB/LowLevel/Template/Template_Endpoint_Control_R.c **** 				Length--;
  25:../LUFA_100807//LUFA/Drivers/USB/LowLevel/Template/Template_Endpoint_Control_R.c **** 			}
  26:../LUFA_100807//LUFA/Drivers/USB/LowLevel/Template/Template_Endpoint_Control_R.c **** 			
  27:../LUFA_100807//LUFA/Drivers/USB/LowLevel/Template/Template_Endpoint_Control_R.c **** 			Endpoint_ClearOUT();
  28:../LUFA_100807//LUFA/Drivers/USB/LowLevel/Template/Template_Endpoint_Control_R.c **** 		}		  
  29:../LUFA_100807//LUFA/Drivers/USB/LowLevel/Template/Template_Endpoint_Control_R.c **** 	}
  30:../LUFA_100807//LUFA/Drivers/USB/LowLevel/Template/Template_Endpoint_Control_R.c **** 	
  31:../LUFA_100807//LUFA/Drivers/USB/LowLevel/Template/Template_Endpoint_Control_R.c **** 	while (!(Endpoint_IsINReady()))
 1484               		.loc 4 31 0
 1485 001a 80FF      		sbrs r24,0
 1486 001c 00C0      		rjmp .L192
  32:../LUFA_100807//LUFA/Drivers/USB/LowLevel/Template/Template_Endpoint_Control_R.c **** 	{
  33:../LUFA_100807//LUFA/Drivers/USB/LowLevel/Template/Template_Endpoint_Control_R.c **** 		if (USB_DeviceState == DEVICE_STATE_Unattached)
  34:../LUFA_100807//LUFA/Drivers/USB/LowLevel/Template/Template_Endpoint_Control_R.c **** 		  return ENDPOINT_RWCSTREAM_DeviceDisconnected;
  35:../LUFA_100807//LUFA/Drivers/USB/LowLevel/Template/Template_Endpoint_Control_R.c **** 		else if (USB_DeviceState == DEVICE_STATE_Suspended)
  36:../LUFA_100807//LUFA/Drivers/USB/LowLevel/Template/Template_Endpoint_Control_R.c **** 		  return ENDPOINT_RWCSTREAM_BusSuspended;
  37:../LUFA_100807//LUFA/Drivers/USB/LowLevel/Template/Template_Endpoint_Control_R.c **** 	}
  38:../LUFA_100807//LUFA/Drivers/USB/LowLevel/Template/Template_Endpoint_Control_R.c **** 	
  39:../LUFA_100807//LUFA/Drivers/USB/LowLevel/Template/Template_Endpoint_Control_R.c **** 	return ENDPOINT_RWCSTREAM_NoError;
 1487               		.loc 4 39 0
 1488 001e 80E0      		ldi r24,0
 1489 0020 0895      		ret
 1490               	.LVL136:
 1491               	.L190:
 1492               	.LBB314:
 1493               	.LBB315:
 429:../LUFA_100807//LUFA/Drivers/USB/LowLevel/Endpoint.h **** 			}
 1494               		.loc 2 429 0
 1495 0022 2091 E800 		lds r18,232
 1496               	.LBE315:
 1497               	.LBE314:
  11:../LUFA_100807//LUFA/Drivers/USB/LowLevel/Template/Template_Endpoint_Control_R.c **** 		  return ENDPOINT_RWCSTREAM_HostAborted;
 1498               		.loc 4 11 0
 1499 0026 23FD      		sbrc r18,3
 1500 0028 00C0      		rjmp .L193
  14:../LUFA_100807//LUFA/Drivers/USB/LowLevel/Template/Template_Endpoint_Control_R.c **** 		  return ENDPOINT_RWCSTREAM_DeviceDisconnected;
 1501               		.loc 4 14 0
 1502 002a 2EB3      		in r18,0x1e
 1503 002c 2223      		tst r18
 1504 002e 01F0      		breq .L197
  16:../LUFA_100807//LUFA/Drivers/USB/LowLevel/Template/Template_Endpoint_Control_R.c **** 		  return ENDPOINT_RWCSTREAM_BusSuspended;
 1505               		.loc 4 16 0
 1506 0030 2EB3      		in r18,0x1e
 1507 0032 2530      		cpi r18,lo8(5)
 1508 0034 01F0      		breq .L198
 1509               	.LBB316:
 1510               	.LBB317:
 417:../LUFA_100807//LUFA/Drivers/USB/LowLevel/Endpoint.h **** 			}
 1511               		.loc 2 417 0
 1512 0036 2091 E800 		lds r18,232
 1513               	.LBE317:
 1514               	.LBE316:
  19:../LUFA_100807//LUFA/Drivers/USB/LowLevel/Template/Template_Endpoint_Control_R.c **** 		{
 1515               		.loc 4 19 0
 1516 003a 22FF      		sbrs r18,2
 1517 003c 00C0      		rjmp .L187
 1518               	.L186:
 1519               	.LBB318:
 1520               	.LBB319:
 266:../LUFA_100807//LUFA/Drivers/USB/LowLevel/Endpoint.h **** 				#endif
 1521               		.loc 2 266 0
 1522 003e 2091 F200 		lds r18,242
 1523               	.LBE319:
 1524               	.LBE318:
  21:../LUFA_100807//LUFA/Drivers/USB/LowLevel/Template/Template_Endpoint_Control_R.c **** 			{
 1525               		.loc 4 21 0
 1526 0042 2223      		tst r18
 1527 0044 01F0      		breq .L188
  23:../LUFA_100807//LUFA/Drivers/USB/LowLevel/Template/Template_Endpoint_Control_R.c **** 				Length--;
 1528               		.loc 4 23 0
 1529 0046 9C01      		movw r18,r24
 1530 0048 2F5F      		subi r18,-1
 1531 004a 3F4F      		sbci r19,-1
 1532               	.LVL137:
 1533               	.LBB320:
 1534               	.LBB321:
 550:../LUFA_100807//LUFA/Drivers/USB/LowLevel/Endpoint.h **** 			}
 1535               		.loc 2 550 0
 1536 004c 4091 F100 		lds r20,241
 1537               	.LBE321:
 1538               	.LBE320:
  23:../LUFA_100807//LUFA/Drivers/USB/LowLevel/Template/Template_Endpoint_Control_R.c **** 				Length--;
 1539               		.loc 4 23 0
 1540 0050 FC01      		movw r30,r24
 1541 0052 4083      		st Z,r20
  24:../LUFA_100807//LUFA/Drivers/USB/LowLevel/Template/Template_Endpoint_Control_R.c **** 			}
 1542               		.loc 4 24 0
 1543 0054 6150      		subi r22,1
 1544 0056 7109      		sbc r23,__zero_reg__
 1545               	.LVL138:
  23:../LUFA_100807//LUFA/Drivers/USB/LowLevel/Template/Template_Endpoint_Control_R.c **** 				Length--;
 1546               		.loc 4 23 0
 1547 0058 C901      		movw r24,r18
  21:../LUFA_100807//LUFA/Drivers/USB/LowLevel/Template/Template_Endpoint_Control_R.c **** 			{
 1548               		.loc 4 21 0
 1549 005a 01F4      		brne .L186
 1550 005c 00C0      		rjmp .L188
 1551               	.LVL139:
 1552               	.L192:
  33:../LUFA_100807//LUFA/Drivers/USB/LowLevel/Template/Template_Endpoint_Control_R.c **** 		  return ENDPOINT_RWCSTREAM_DeviceDisconnected;
 1553               		.loc 4 33 0
 1554 005e 8EB3      		in r24,0x1e
 1555 0060 8823      		tst r24
 1556 0062 01F0      		breq .L197
  35:../LUFA_100807//LUFA/Drivers/USB/LowLevel/Template/Template_Endpoint_Control_R.c **** 		  return ENDPOINT_RWCSTREAM_BusSuspended;
 1557               		.loc 4 35 0
 1558 0064 8EB3      		in r24,0x1e
 1559 0066 8530      		cpi r24,lo8(5)
 1560 0068 01F4      		brne .L191
 1561               	.L198:
  17:../LUFA_100807//LUFA/Drivers/USB/LowLevel/Template/Template_Endpoint_Control_R.c **** 		  
 1562               		.loc 4 17 0
 1563 006a 83E0      		ldi r24,lo8(3)
 1564               	/* epilogue start */
  40:../LUFA_100807//LUFA/Drivers/USB/LowLevel/Template/Template_Endpoint_Control_R.c **** }
 1565               		.loc 4 40 0
 1566 006c 0895      		ret
 1567               	.LVL140:
 1568               	.L193:
  12:../LUFA_100807//LUFA/Drivers/USB/LowLevel/Template/Template_Endpoint_Control_R.c **** 
 1569               		.loc 4 12 0
 1570 006e 81E0      		ldi r24,lo8(1)
 1571               	.LVL141:
 1572 0070 0895      		ret
 1573               	.L197:
  15:../LUFA_100807//LUFA/Drivers/USB/LowLevel/Template/Template_Endpoint_Control_R.c **** 		else if (USB_DeviceState == DEVICE_STATE_Suspended)
 1574               		.loc 4 15 0
 1575 0072 82E0      		ldi r24,lo8(2)
 1576 0074 0895      		ret
 1577               		.cfi_endproc
 1578               	.LFE74:
 1580               		.section	.text.Endpoint_Read_Control_EStream_LE,"ax",@progbits
 1581               	.global	Endpoint_Read_Control_EStream_LE
 1583               	Endpoint_Read_Control_EStream_LE:
 1584               	.LFB75:
   3:../LUFA_100807//LUFA/Drivers/USB/LowLevel/Template/Template_Endpoint_Control_R.c **** 	uint8_t* DataStream = ((uint8_t*)Buffer + TEMPLATE_BUFFER_OFFSET(Length));
 1585               		.loc 4 3 0
 1586               		.cfi_startproc
 1587               	.LVL142:
 1588 0000 0F93      		push r16
 1589               	.LCFI10:
 1590               		.cfi_def_cfa_offset 3
 1591               		.cfi_offset 16, -2
 1592 0002 1F93      		push r17
 1593               	.LCFI11:
 1594               		.cfi_def_cfa_offset 4
 1595               		.cfi_offset 17, -3
 1596 0004 CF93      		push r28
 1597               	.LCFI12:
 1598               		.cfi_def_cfa_offset 5
 1599               		.cfi_offset 28, -4
 1600 0006 DF93      		push r29
 1601               	.LCFI13:
 1602               		.cfi_def_cfa_offset 6
 1603               		.cfi_offset 29, -5
 1604               	/* prologue: function */
 1605               	/* frame size = 0 */
 1606               	/* stack size = 4 */
 1607               	.L__stack_usage = 4
 1608 0008 EB01      		movw r28,r22
 1609               	.LVL143:
   6:../LUFA_100807//LUFA/Drivers/USB/LowLevel/Template/Template_Endpoint_Control_R.c **** 	  Endpoint_ClearOUT();
 1610               		.loc 4 6 0
 1611 000a 2097      		sbiw r28,0
 1612 000c 01F4      		brne .L205
 1613               	.LBB322:
 1614               	.LBB323:
 471:../LUFA_100807//LUFA/Drivers/USB/LowLevel/Endpoint.h **** 				#endif
 1615               		.loc 2 471 0
 1616 000e 2091 E800 		lds r18,232
 1617 0012 2B7F      		andi r18,lo8(-5)
 1618 0014 2093 E800 		sts 232,r18
 1619               	.LVL144:
 1620               	.L205:
 1621               	.LBE323:
 1622               	.LBE322:
   9:../LUFA_100807//LUFA/Drivers/USB/LowLevel/Template/Template_Endpoint_Control_R.c **** 	{
 1623               		.loc 4 9 0
 1624 0018 2097      		sbiw r28,0
 1625 001a 01F4      		brne .L208
 1626               	.LVL145:
 1627               	.L209:
 1628               	.LBB324:
 1629               	.LBB325:
 405:../LUFA_100807//LUFA/Drivers/USB/LowLevel/Endpoint.h **** 			}
 1630               		.loc 2 405 0
 1631 001c 8091 E800 		lds r24,232
 1632               	.LBE325:
 1633               	.LBE324:
  31:../LUFA_100807//LUFA/Drivers/USB/LowLevel/Template/Template_Endpoint_Control_R.c **** 	{
 1634               		.loc 4 31 0
 1635 0020 80FF      		sbrs r24,0
 1636 0022 00C0      		rjmp .L210
  39:../LUFA_100807//LUFA/Drivers/USB/LowLevel/Template/Template_Endpoint_Control_R.c **** }
 1637               		.loc 4 39 0
 1638 0024 80E0      		ldi r24,0
 1639               	.L200:
 1640               	/* epilogue start */
 1641               		.loc 4 40 0
 1642 0026 DF91      		pop r29
 1643 0028 CF91      		pop r28
 1644               	.LVL146:
 1645 002a 1F91      		pop r17
 1646 002c 0F91      		pop r16
 1647 002e 0895      		ret
 1648               	.LVL147:
 1649               	.L208:
 1650               	.LBB326:
 1651               	.LBB327:
 429:../LUFA_100807//LUFA/Drivers/USB/LowLevel/Endpoint.h **** 			}
 1652               		.loc 2 429 0
 1653 0030 2091 E800 		lds r18,232
 1654               	.LBE327:
 1655               	.LBE326:
  11:../LUFA_100807//LUFA/Drivers/USB/LowLevel/Template/Template_Endpoint_Control_R.c **** 		  return ENDPOINT_RWCSTREAM_HostAborted;
 1656               		.loc 4 11 0
 1657 0034 23FD      		sbrc r18,3
 1658 0036 00C0      		rjmp .L211
  14:../LUFA_100807//LUFA/Drivers/USB/LowLevel/Template/Template_Endpoint_Control_R.c **** 		  return ENDPOINT_RWCSTREAM_DeviceDisconnected;
 1659               		.loc 4 14 0
 1660 0038 2EB3      		in r18,0x1e
 1661 003a 2223      		tst r18
 1662 003c 01F0      		breq .L214
  16:../LUFA_100807//LUFA/Drivers/USB/LowLevel/Template/Template_Endpoint_Control_R.c **** 		  return ENDPOINT_RWCSTREAM_BusSuspended;
 1663               		.loc 4 16 0
 1664 003e 2EB3      		in r18,0x1e
 1665 0040 2530      		cpi r18,lo8(5)
 1666 0042 01F0      		breq .L215
 1667               	.LBB328:
 1668               	.LBB329:
 417:../LUFA_100807//LUFA/Drivers/USB/LowLevel/Endpoint.h **** 			}
 1669               		.loc 2 417 0
 1670 0044 2091 E800 		lds r18,232
 1671               	.LBE329:
 1672               	.LBE328:
  19:../LUFA_100807//LUFA/Drivers/USB/LowLevel/Template/Template_Endpoint_Control_R.c **** 		{
 1673               		.loc 4 19 0
 1674 0048 22FF      		sbrs r18,2
 1675 004a 00C0      		rjmp .L205
 1676               	.L204:
 1677               	.LBB330:
 1678               	.LBB331:
 266:../LUFA_100807//LUFA/Drivers/USB/LowLevel/Endpoint.h **** 				#endif
 1679               		.loc 2 266 0
 1680 004c 2091 F200 		lds r18,242
 1681               	.LBE331:
 1682               	.LBE330:
  21:../LUFA_100807//LUFA/Drivers/USB/LowLevel/Template/Template_Endpoint_Control_R.c **** 			{
 1683               		.loc 4 21 0
 1684 0050 2111      		cpse r18,__zero_reg__
 1685 0052 00C0      		rjmp .L207
 1686 0054 8C01      		movw r16,r24
 1687               	.LVL148:
 1688               	.L206:
 1689               	.LBB332:
 1690               	.LBB333:
 471:../LUFA_100807//LUFA/Drivers/USB/LowLevel/Endpoint.h **** 				#endif
 1691               		.loc 2 471 0
 1692 0056 8091 E800 		lds r24,232
 1693 005a 8B7F      		andi r24,lo8(-5)
 1694 005c 8093 E800 		sts 232,r24
 1695 0060 C801      		movw r24,r16
 1696 0062 00C0      		rjmp .L205
 1697               	.LVL149:
 1698               	.L207:
 1699               	.LBE333:
 1700               	.LBE332:
 1701               	.LBB334:
 1702               	.LBB335:
 550:../LUFA_100807//LUFA/Drivers/USB/LowLevel/Endpoint.h **** 			}
 1703               		.loc 2 550 0
 1704 0064 6091 F100 		lds r22,241
 1705               	.LBE335:
 1706               	.LBE334:
  23:../LUFA_100807//LUFA/Drivers/USB/LowLevel/Template/Template_Endpoint_Control_R.c **** 				Length--;
 1707               		.loc 4 23 0
 1708 0068 8C01      		movw r16,r24
 1709 006a 0F5F      		subi r16,-1
 1710 006c 1F4F      		sbci r17,-1
 1711               	.LVL150:
 1712 006e 0E94 0000 		call eeprom_update_byte
 1713               	.LVL151:
  24:../LUFA_100807//LUFA/Drivers/USB/LowLevel/Template/Template_Endpoint_Control_R.c **** 			}
 1714               		.loc 4 24 0
 1715 0072 2197      		sbiw r28,1
 1716               	.LVL152:
  21:../LUFA_100807//LUFA/Drivers/USB/LowLevel/Template/Template_Endpoint_Control_R.c **** 			{
 1717               		.loc 4 21 0
 1718 0074 01F0      		breq .L206
  23:../LUFA_100807//LUFA/Drivers/USB/LowLevel/Template/Template_Endpoint_Control_R.c **** 				Length--;
 1719               		.loc 4 23 0
 1720 0076 C801      		movw r24,r16
 1721 0078 00C0      		rjmp .L204
 1722               	.LVL153:
 1723               	.L210:
  33:../LUFA_100807//LUFA/Drivers/USB/LowLevel/Template/Template_Endpoint_Control_R.c **** 		  return ENDPOINT_RWCSTREAM_DeviceDisconnected;
 1724               		.loc 4 33 0
 1725 007a 8EB3      		in r24,0x1e
 1726 007c 8823      		tst r24
 1727 007e 01F0      		breq .L214
  35:../LUFA_100807//LUFA/Drivers/USB/LowLevel/Template/Template_Endpoint_Control_R.c **** 		  return ENDPOINT_RWCSTREAM_BusSuspended;
 1728               		.loc 4 35 0
 1729 0080 8EB3      		in r24,0x1e
 1730 0082 8530      		cpi r24,lo8(5)
 1731 0084 01F4      		brne .L209
 1732               	.L215:
  17:../LUFA_100807//LUFA/Drivers/USB/LowLevel/Template/Template_Endpoint_Control_R.c **** 		  
 1733               		.loc 4 17 0
 1734 0086 83E0      		ldi r24,lo8(3)
 1735 0088 00C0      		rjmp .L200
 1736               	.LVL154:
 1737               	.L211:
  12:../LUFA_100807//LUFA/Drivers/USB/LowLevel/Template/Template_Endpoint_Control_R.c **** 
 1738               		.loc 4 12 0
 1739 008a 81E0      		ldi r24,lo8(1)
 1740               	.LVL155:
 1741 008c 00C0      		rjmp .L200
 1742               	.L214:
  15:../LUFA_100807//LUFA/Drivers/USB/LowLevel/Template/Template_Endpoint_Control_R.c **** 		else if (USB_DeviceState == DEVICE_STATE_Suspended)
 1743               		.loc 4 15 0
 1744 008e 82E0      		ldi r24,lo8(2)
 1745 0090 00C0      		rjmp .L200
 1746               		.cfi_endproc
 1747               	.LFE75:
 1749               		.section	.text.Endpoint_Read_Control_Stream_BE,"ax",@progbits
 1750               	.global	Endpoint_Read_Control_Stream_BE
 1752               	Endpoint_Read_Control_Stream_BE:
 1753               	.LFB76:
   3:../LUFA_100807//LUFA/Drivers/USB/LowLevel/Template/Template_Endpoint_Control_R.c **** 	uint8_t* DataStream = ((uint8_t*)Buffer + TEMPLATE_BUFFER_OFFSET(Length));
 1754               		.loc 4 3 0
 1755               		.cfi_startproc
 1756               	.LVL156:
 1757               	/* prologue: function */
 1758               	/* frame size = 0 */
 1759               	/* stack size = 0 */
 1760               	.L__stack_usage = 0
   4:../LUFA_100807//LUFA/Drivers/USB/LowLevel/Template/Template_Endpoint_Control_R.c **** 	
 1761               		.loc 4 4 0
 1762 0000 9B01      		movw r18,r22
 1763 0002 2150      		subi r18,1
 1764 0004 3109      		sbc r19,__zero_reg__
 1765 0006 820F      		add r24,r18
 1766 0008 931F      		adc r25,r19
 1767               	.LVL157:
   6:../LUFA_100807//LUFA/Drivers/USB/LowLevel/Template/Template_Endpoint_Control_R.c **** 	  Endpoint_ClearOUT();
 1768               		.loc 4 6 0
 1769 000a 6115      		cp r22,__zero_reg__
 1770 000c 7105      		cpc r23,__zero_reg__
 1771 000e 01F4      		brne .L225
 1772               	.L226:
 1773               	.LBB336:
 1774               	.LBB337:
 471:../LUFA_100807//LUFA/Drivers/USB/LowLevel/Endpoint.h **** 				#endif
 1775               		.loc 2 471 0
 1776 0010 2091 E800 		lds r18,232
 1777 0014 2B7F      		andi r18,lo8(-5)
 1778 0016 2093 E800 		sts 232,r18
 1779               	.L225:
 1780               	.LBE337:
 1781               	.LBE336:
   9:../LUFA_100807//LUFA/Drivers/USB/LowLevel/Template/Template_Endpoint_Control_R.c **** 	{
 1782               		.loc 4 9 0
 1783 001a 6115      		cp r22,__zero_reg__
 1784 001c 7105      		cpc r23,__zero_reg__
 1785 001e 01F4      		brne .L228
 1786               	.LVL158:
 1787               	.L229:
 1788               	.LBB338:
 1789               	.LBB339:
 405:../LUFA_100807//LUFA/Drivers/USB/LowLevel/Endpoint.h **** 			}
 1790               		.loc 2 405 0
 1791 0020 8091 E800 		lds r24,232
 1792               	.LBE339:
 1793               	.LBE338:
  31:../LUFA_100807//LUFA/Drivers/USB/LowLevel/Template/Template_Endpoint_Control_R.c **** 	{
 1794               		.loc 4 31 0
 1795 0024 80FF      		sbrs r24,0
 1796 0026 00C0      		rjmp .L230
  39:../LUFA_100807//LUFA/Drivers/USB/LowLevel/Template/Template_Endpoint_Control_R.c **** }
 1797               		.loc 4 39 0
 1798 0028 80E0      		ldi r24,0
 1799 002a 0895      		ret
 1800               	.LVL159:
 1801               	.L228:
 1802               	.LBB340:
 1803               	.LBB341:
 429:../LUFA_100807//LUFA/Drivers/USB/LowLevel/Endpoint.h **** 			}
 1804               		.loc 2 429 0
 1805 002c 2091 E800 		lds r18,232
 1806               	.LBE341:
 1807               	.LBE340:
  11:../LUFA_100807//LUFA/Drivers/USB/LowLevel/Template/Template_Endpoint_Control_R.c **** 		  return ENDPOINT_RWCSTREAM_HostAborted;
 1808               		.loc 4 11 0
 1809 0030 23FD      		sbrc r18,3
 1810 0032 00C0      		rjmp .L231
  14:../LUFA_100807//LUFA/Drivers/USB/LowLevel/Template/Template_Endpoint_Control_R.c **** 		  return ENDPOINT_RWCSTREAM_DeviceDisconnected;
 1811               		.loc 4 14 0
 1812 0034 2EB3      		in r18,0x1e
 1813 0036 2223      		tst r18
 1814 0038 01F0      		breq .L234
  16:../LUFA_100807//LUFA/Drivers/USB/LowLevel/Template/Template_Endpoint_Control_R.c **** 		  return ENDPOINT_RWCSTREAM_BusSuspended;
 1815               		.loc 4 16 0
 1816 003a 2EB3      		in r18,0x1e
 1817 003c 2530      		cpi r18,lo8(5)
 1818 003e 01F0      		breq .L235
 1819               	.LBB342:
 1820               	.LBB343:
 417:../LUFA_100807//LUFA/Drivers/USB/LowLevel/Endpoint.h **** 			}
 1821               		.loc 2 417 0
 1822 0040 2091 E800 		lds r18,232
 1823               	.LBE343:
 1824               	.LBE342:
  19:../LUFA_100807//LUFA/Drivers/USB/LowLevel/Template/Template_Endpoint_Control_R.c **** 		{
 1825               		.loc 4 19 0
 1826 0044 22FF      		sbrs r18,2
 1827 0046 00C0      		rjmp .L225
 1828               	.L224:
 1829               	.LBB344:
 1830               	.LBB345:
 266:../LUFA_100807//LUFA/Drivers/USB/LowLevel/Endpoint.h **** 				#endif
 1831               		.loc 2 266 0
 1832 0048 2091 F200 		lds r18,242
 1833               	.LBE345:
 1834               	.LBE344:
  21:../LUFA_100807//LUFA/Drivers/USB/LowLevel/Template/Template_Endpoint_Control_R.c **** 			{
 1835               		.loc 4 21 0
 1836 004c 2223      		tst r18
 1837 004e 01F0      		breq .L226
  23:../LUFA_100807//LUFA/Drivers/USB/LowLevel/Template/Template_Endpoint_Control_R.c **** 				Length--;
 1838               		.loc 4 23 0
 1839 0050 0197      		sbiw r24,1
 1840               	.LVL160:
 1841               	.LBB346:
 1842               	.LBB347:
 550:../LUFA_100807//LUFA/Drivers/USB/LowLevel/Endpoint.h **** 			}
 1843               		.loc 2 550 0
 1844 0052 2091 F100 		lds r18,241
 1845               	.LBE347:
 1846               	.LBE346:
  23:../LUFA_100807//LUFA/Drivers/USB/LowLevel/Template/Template_Endpoint_Control_R.c **** 				Length--;
 1847               		.loc 4 23 0
 1848 0056 FC01      		movw r30,r24
 1849 0058 2183      		std Z+1,r18
  24:../LUFA_100807//LUFA/Drivers/USB/LowLevel/Template/Template_Endpoint_Control_R.c **** 			}
 1850               		.loc 4 24 0
 1851 005a 6150      		subi r22,1
 1852 005c 7109      		sbc r23,__zero_reg__
 1853               	.LVL161:
  21:../LUFA_100807//LUFA/Drivers/USB/LowLevel/Template/Template_Endpoint_Control_R.c **** 			{
 1854               		.loc 4 21 0
 1855 005e 01F4      		brne .L224
 1856 0060 00C0      		rjmp .L226
 1857               	.LVL162:
 1858               	.L230:
  33:../LUFA_100807//LUFA/Drivers/USB/LowLevel/Template/Template_Endpoint_Control_R.c **** 		  return ENDPOINT_RWCSTREAM_DeviceDisconnected;
 1859               		.loc 4 33 0
 1860 0062 8EB3      		in r24,0x1e
 1861 0064 8823      		tst r24
 1862 0066 01F0      		breq .L234
  35:../LUFA_100807//LUFA/Drivers/USB/LowLevel/Template/Template_Endpoint_Control_R.c **** 		  return ENDPOINT_RWCSTREAM_BusSuspended;
 1863               		.loc 4 35 0
 1864 0068 8EB3      		in r24,0x1e
 1865 006a 8530      		cpi r24,lo8(5)
 1866 006c 01F4      		brne .L229
 1867               	.L235:
  17:../LUFA_100807//LUFA/Drivers/USB/LowLevel/Template/Template_Endpoint_Control_R.c **** 		  
 1868               		.loc 4 17 0
 1869 006e 83E0      		ldi r24,lo8(3)
 1870               	/* epilogue start */
 1871               		.loc 4 40 0
 1872 0070 0895      		ret
 1873               	.LVL163:
 1874               	.L231:
  12:../LUFA_100807//LUFA/Drivers/USB/LowLevel/Template/Template_Endpoint_Control_R.c **** 
 1875               		.loc 4 12 0
 1876 0072 81E0      		ldi r24,lo8(1)
 1877               	.LVL164:
 1878 0074 0895      		ret
 1879               	.L234:
  15:../LUFA_100807//LUFA/Drivers/USB/LowLevel/Template/Template_Endpoint_Control_R.c **** 		else if (USB_DeviceState == DEVICE_STATE_Suspended)
 1880               		.loc 4 15 0
 1881 0076 82E0      		ldi r24,lo8(2)
 1882 0078 0895      		ret
 1883               		.cfi_endproc
 1884               	.LFE76:
 1886               		.section	.text.Endpoint_Read_Control_EStream_BE,"ax",@progbits
 1887               	.global	Endpoint_Read_Control_EStream_BE
 1889               	Endpoint_Read_Control_EStream_BE:
 1890               	.LFB77:
   3:../LUFA_100807//LUFA/Drivers/USB/LowLevel/Template/Template_Endpoint_Control_R.c **** 	uint8_t* DataStream = ((uint8_t*)Buffer + TEMPLATE_BUFFER_OFFSET(Length));
 1891               		.loc 4 3 0
 1892               		.cfi_startproc
 1893               	.LVL165:
 1894 0000 0F93      		push r16
 1895               	.LCFI14:
 1896               		.cfi_def_cfa_offset 3
 1897               		.cfi_offset 16, -2
 1898 0002 1F93      		push r17
 1899               	.LCFI15:
 1900               		.cfi_def_cfa_offset 4
 1901               		.cfi_offset 17, -3
 1902 0004 CF93      		push r28
 1903               	.LCFI16:
 1904               		.cfi_def_cfa_offset 5
 1905               		.cfi_offset 28, -4
 1906 0006 DF93      		push r29
 1907               	.LCFI17:
 1908               		.cfi_def_cfa_offset 6
 1909               		.cfi_offset 29, -5
 1910               	/* prologue: function */
 1911               	/* frame size = 0 */
 1912               	/* stack size = 4 */
 1913               	.L__stack_usage = 4
 1914 0008 EB01      		movw r28,r22
   4:../LUFA_100807//LUFA/Drivers/USB/LowLevel/Template/Template_Endpoint_Control_R.c **** 	
 1915               		.loc 4 4 0
 1916 000a 9B01      		movw r18,r22
 1917 000c 2150      		subi r18,1
 1918 000e 3109      		sbc r19,__zero_reg__
 1919 0010 820F      		add r24,r18
 1920 0012 931F      		adc r25,r19
 1921               	.LVL166:
   6:../LUFA_100807//LUFA/Drivers/USB/LowLevel/Template/Template_Endpoint_Control_R.c **** 	  Endpoint_ClearOUT();
 1922               		.loc 4 6 0
 1923 0014 2097      		sbiw r28,0
 1924 0016 01F4      		brne .L245
 1925               	.LBB348:
 1926               	.LBB349:
 471:../LUFA_100807//LUFA/Drivers/USB/LowLevel/Endpoint.h **** 				#endif
 1927               		.loc 2 471 0
 1928 0018 2091 E800 		lds r18,232
 1929 001c 2B7F      		andi r18,lo8(-5)
 1930 001e 2093 E800 		sts 232,r18
 1931               	.LVL167:
 1932               	.L245:
 1933               	.LBE349:
 1934               	.LBE348:
   9:../LUFA_100807//LUFA/Drivers/USB/LowLevel/Template/Template_Endpoint_Control_R.c **** 	{
 1935               		.loc 4 9 0
 1936 0022 2097      		sbiw r28,0
 1937 0024 01F4      		brne .L248
 1938               	.LVL168:
 1939               	.L249:
 1940               	.LBB350:
 1941               	.LBB351:
 405:../LUFA_100807//LUFA/Drivers/USB/LowLevel/Endpoint.h **** 			}
 1942               		.loc 2 405 0
 1943 0026 8091 E800 		lds r24,232
 1944               	.LBE351:
 1945               	.LBE350:
  31:../LUFA_100807//LUFA/Drivers/USB/LowLevel/Template/Template_Endpoint_Control_R.c **** 	{
 1946               		.loc 4 31 0
 1947 002a 80FF      		sbrs r24,0
 1948 002c 00C0      		rjmp .L250
  39:../LUFA_100807//LUFA/Drivers/USB/LowLevel/Template/Template_Endpoint_Control_R.c **** }
 1949               		.loc 4 39 0
 1950 002e 80E0      		ldi r24,0
 1951               	.L240:
 1952               	/* epilogue start */
 1953               		.loc 4 40 0
 1954 0030 DF91      		pop r29
 1955 0032 CF91      		pop r28
 1956               	.LVL169:
 1957 0034 1F91      		pop r17
 1958 0036 0F91      		pop r16
 1959 0038 0895      		ret
 1960               	.LVL170:
 1961               	.L248:
 1962               	.LBB352:
 1963               	.LBB353:
 429:../LUFA_100807//LUFA/Drivers/USB/LowLevel/Endpoint.h **** 			}
 1964               		.loc 2 429 0
 1965 003a 2091 E800 		lds r18,232
 1966               	.LBE353:
 1967               	.LBE352:
  11:../LUFA_100807//LUFA/Drivers/USB/LowLevel/Template/Template_Endpoint_Control_R.c **** 		  return ENDPOINT_RWCSTREAM_HostAborted;
 1968               		.loc 4 11 0
 1969 003e 23FD      		sbrc r18,3
 1970 0040 00C0      		rjmp .L251
  14:../LUFA_100807//LUFA/Drivers/USB/LowLevel/Template/Template_Endpoint_Control_R.c **** 		  return ENDPOINT_RWCSTREAM_DeviceDisconnected;
 1971               		.loc 4 14 0
 1972 0042 2EB3      		in r18,0x1e
 1973 0044 2223      		tst r18
 1974 0046 01F0      		breq .L254
  16:../LUFA_100807//LUFA/Drivers/USB/LowLevel/Template/Template_Endpoint_Control_R.c **** 		  return ENDPOINT_RWCSTREAM_BusSuspended;
 1975               		.loc 4 16 0
 1976 0048 2EB3      		in r18,0x1e
 1977 004a 2530      		cpi r18,lo8(5)
 1978 004c 01F0      		breq .L255
 1979               	.LBB354:
 1980               	.LBB355:
 417:../LUFA_100807//LUFA/Drivers/USB/LowLevel/Endpoint.h **** 			}
 1981               		.loc 2 417 0
 1982 004e 2091 E800 		lds r18,232
 1983               	.LBE355:
 1984               	.LBE354:
  19:../LUFA_100807//LUFA/Drivers/USB/LowLevel/Template/Template_Endpoint_Control_R.c **** 		{
 1985               		.loc 4 19 0
 1986 0052 22FF      		sbrs r18,2
 1987 0054 00C0      		rjmp .L245
 1988               	.L244:
 1989               	.LBB356:
 1990               	.LBB357:
 266:../LUFA_100807//LUFA/Drivers/USB/LowLevel/Endpoint.h **** 				#endif
 1991               		.loc 2 266 0
 1992 0056 2091 F200 		lds r18,242
 1993               	.LBE357:
 1994               	.LBE356:
  21:../LUFA_100807//LUFA/Drivers/USB/LowLevel/Template/Template_Endpoint_Control_R.c **** 			{
 1995               		.loc 4 21 0
 1996 005a 2111      		cpse r18,__zero_reg__
 1997 005c 00C0      		rjmp .L247
 1998 005e 8C01      		movw r16,r24
 1999               	.LVL171:
 2000               	.L246:
 2001               	.LBB358:
 2002               	.LBB359:
 471:../LUFA_100807//LUFA/Drivers/USB/LowLevel/Endpoint.h **** 				#endif
 2003               		.loc 2 471 0
 2004 0060 8091 E800 		lds r24,232
 2005 0064 8B7F      		andi r24,lo8(-5)
 2006 0066 8093 E800 		sts 232,r24
 2007 006a C801      		movw r24,r16
 2008 006c 00C0      		rjmp .L245
 2009               	.LVL172:
 2010               	.L247:
 2011               	.LBE359:
 2012               	.LBE358:
 2013               	.LBB360:
 2014               	.LBB361:
 550:../LUFA_100807//LUFA/Drivers/USB/LowLevel/Endpoint.h **** 			}
 2015               		.loc 2 550 0
 2016 006e 6091 F100 		lds r22,241
 2017               	.LBE361:
 2018               	.LBE360:
  23:../LUFA_100807//LUFA/Drivers/USB/LowLevel/Template/Template_Endpoint_Control_R.c **** 				Length--;
 2019               		.loc 4 23 0
 2020 0072 8C01      		movw r16,r24
 2021 0074 0150      		subi r16,1
 2022 0076 1109      		sbc r17,__zero_reg__
 2023               	.LVL173:
 2024 0078 0E94 0000 		call eeprom_update_byte
 2025               	.LVL174:
  24:../LUFA_100807//LUFA/Drivers/USB/LowLevel/Template/Template_Endpoint_Control_R.c **** 			}
 2026               		.loc 4 24 0
 2027 007c 2197      		sbiw r28,1
 2028               	.LVL175:
  21:../LUFA_100807//LUFA/Drivers/USB/LowLevel/Template/Template_Endpoint_Control_R.c **** 			{
 2029               		.loc 4 21 0
 2030 007e 01F0      		breq .L246
  23:../LUFA_100807//LUFA/Drivers/USB/LowLevel/Template/Template_Endpoint_Control_R.c **** 				Length--;
 2031               		.loc 4 23 0
 2032 0080 C801      		movw r24,r16
 2033 0082 00C0      		rjmp .L244
 2034               	.LVL176:
 2035               	.L250:
  33:../LUFA_100807//LUFA/Drivers/USB/LowLevel/Template/Template_Endpoint_Control_R.c **** 		  return ENDPOINT_RWCSTREAM_DeviceDisconnected;
 2036               		.loc 4 33 0
 2037 0084 8EB3      		in r24,0x1e
 2038 0086 8823      		tst r24
 2039 0088 01F0      		breq .L254
  35:../LUFA_100807//LUFA/Drivers/USB/LowLevel/Template/Template_Endpoint_Control_R.c **** 		  return ENDPOINT_RWCSTREAM_BusSuspended;
 2040               		.loc 4 35 0
 2041 008a 8EB3      		in r24,0x1e
 2042 008c 8530      		cpi r24,lo8(5)
 2043 008e 01F4      		brne .L249
 2044               	.L255:
  17:../LUFA_100807//LUFA/Drivers/USB/LowLevel/Template/Template_Endpoint_Control_R.c **** 		  
 2045               		.loc 4 17 0
 2046 0090 83E0      		ldi r24,lo8(3)
 2047 0092 00C0      		rjmp .L240
 2048               	.LVL177:
 2049               	.L251:
  12:../LUFA_100807//LUFA/Drivers/USB/LowLevel/Template/Template_Endpoint_Control_R.c **** 
 2050               		.loc 4 12 0
 2051 0094 81E0      		ldi r24,lo8(1)
 2052               	.LVL178:
 2053 0096 00C0      		rjmp .L240
 2054               	.L254:
  15:../LUFA_100807//LUFA/Drivers/USB/LowLevel/Template/Template_Endpoint_Control_R.c **** 		else if (USB_DeviceState == DEVICE_STATE_Suspended)
 2055               		.loc 4 15 0
 2056 0098 82E0      		ldi r24,lo8(2)
 2057 009a 00C0      		rjmp .L240
 2058               		.cfi_endproc
 2059               	.LFE77:
 2061               		.text
 2062               	.Letext0:
 2063               		.file 5 "/Applications/Arduino.app/Contents/Java/hardware/tools/avr/avr/include/stdint.h"
 2064               		.file 6 "../LUFA_100807//LUFA/Drivers/USB/LowLevel/../HighLevel/../LowLevel/../HighLevel/StdReques
 2065               		.file 7 "../LUFA_100807//LUFA/Drivers/USB/LowLevel/../HighLevel/../LowLevel/../HighLevel/DeviceSta
 2066               		.file 8 "../LUFA_100807//LUFA/Drivers/USB/LowLevel/../HighLevel/USBTask.h"
 2067               		.file 9 "../LUFA_100807//LUFA/Drivers/USB/LowLevel/../HighLevel/../LowLevel/Device.h"
 2068               		.file 10 "/Applications/Arduino.app/Contents/Java/hardware/tools/avr/avr/include/avr/eeprom.h"
DEFINED SYMBOLS
                            *ABS*:0000000000000000 Endpoint.c
/var/folders/f9/r06qpml11pqf6b9zf642yr_h0000gn/T//ccJvdicj.s:2      *ABS*:000000000000003e __SP_H__
/var/folders/f9/r06qpml11pqf6b9zf642yr_h0000gn/T//ccJvdicj.s:3      *ABS*:000000000000003d __SP_L__
/var/folders/f9/r06qpml11pqf6b9zf642yr_h0000gn/T//ccJvdicj.s:4      *ABS*:000000000000003f __SREG__
/var/folders/f9/r06qpml11pqf6b9zf642yr_h0000gn/T//ccJvdicj.s:5      *ABS*:0000000000000000 __tmp_reg__
/var/folders/f9/r06qpml11pqf6b9zf642yr_h0000gn/T//ccJvdicj.s:6      *ABS*:0000000000000001 __zero_reg__
/var/folders/f9/r06qpml11pqf6b9zf642yr_h0000gn/T//ccJvdicj.s:13     .text.Endpoint_BytesToEPSizeMaskDynamic:0000000000000000 Endpoint_BytesToEPSizeMaskDynamic
/var/folders/f9/r06qpml11pqf6b9zf642yr_h0000gn/T//ccJvdicj.s:67     .text.Endpoint_ConfigureEndpoint_Prv:0000000000000000 Endpoint_ConfigureEndpoint_Prv
/var/folders/f9/r06qpml11pqf6b9zf642yr_h0000gn/T//ccJvdicj.s:113    .text.Endpoint_ClearEndpoints:0000000000000000 Endpoint_ClearEndpoints
/var/folders/f9/r06qpml11pqf6b9zf642yr_h0000gn/T//ccJvdicj.s:152    .text.Endpoint_ClearStatusStage:0000000000000000 Endpoint_ClearStatusStage
/var/folders/f9/r06qpml11pqf6b9zf642yr_h0000gn/T//ccJvdicj.s:227    .text.Endpoint_Write_Control_Stream_LE:0000000000000000 Endpoint_Write_Control_Stream_LE
/var/folders/f9/r06qpml11pqf6b9zf642yr_h0000gn/T//ccJvdicj.s:415    .text.Endpoint_Write_Control_PStream_LE:0000000000000000 Endpoint_Write_Control_PStream_LE
/var/folders/f9/r06qpml11pqf6b9zf642yr_h0000gn/T//ccJvdicj.s:611    .text.Endpoint_Write_Control_EStream_LE:0000000000000000 Endpoint_Write_Control_EStream_LE
/var/folders/f9/r06qpml11pqf6b9zf642yr_h0000gn/T//ccJvdicj.s:826    .text.Endpoint_Write_Control_Stream_BE:0000000000000000 Endpoint_Write_Control_Stream_BE
/var/folders/f9/r06qpml11pqf6b9zf642yr_h0000gn/T//ccJvdicj.s:1018   .text.Endpoint_Write_Control_PStream_BE:0000000000000000 Endpoint_Write_Control_PStream_BE
/var/folders/f9/r06qpml11pqf6b9zf642yr_h0000gn/T//ccJvdicj.s:1221   .text.Endpoint_Write_Control_EStream_BE:0000000000000000 Endpoint_Write_Control_EStream_BE
/var/folders/f9/r06qpml11pqf6b9zf642yr_h0000gn/T//ccJvdicj.s:1447   .text.Endpoint_Read_Control_Stream_LE:0000000000000000 Endpoint_Read_Control_Stream_LE
/var/folders/f9/r06qpml11pqf6b9zf642yr_h0000gn/T//ccJvdicj.s:1583   .text.Endpoint_Read_Control_EStream_LE:0000000000000000 Endpoint_Read_Control_EStream_LE
/var/folders/f9/r06qpml11pqf6b9zf642yr_h0000gn/T//ccJvdicj.s:1752   .text.Endpoint_Read_Control_Stream_BE:0000000000000000 Endpoint_Read_Control_Stream_BE
/var/folders/f9/r06qpml11pqf6b9zf642yr_h0000gn/T//ccJvdicj.s:1889   .text.Endpoint_Read_Control_EStream_BE:0000000000000000 Endpoint_Read_Control_EStream_BE

UNDEFINED SYMBOLS
USB_ControlRequest
eeprom_read_byte
eeprom_update_byte
